	.file	"bmf.cpp"
	.option nopic
	.attribute arch, "rv64i2p0_m2p0_a2p0_f2p0_d2p0_c2p0"
	.attribute unaligned_access, 0
	.attribute stack_align, 16
	.text
	.section	.srodata,"a"
	.align	3
	.type	_ZStL19piecewise_construct, @object
	.size	_ZStL19piecewise_construct, 1
_ZStL19piecewise_construct:
	.zero	1
	.section	.text._ZNSt11char_traitsIcE6assignERcRKc,"axG",@progbits,_ZNSt11char_traitsIcE6assignERcRKc,comdat
	.align	1
	.weak	_ZNSt11char_traitsIcE6assignERcRKc
	.type	_ZNSt11char_traitsIcE6assignERcRKc, @function
_ZNSt11char_traitsIcE6assignERcRKc:
.LFB346:
	.cfi_startproc
	addi	sp,sp,-32
	.cfi_def_cfa_offset 32
	sd	s0,24(sp)
	.cfi_offset 8, -8
	addi	s0,sp,32
	.cfi_def_cfa 8, 0
	sd	a0,-24(s0)
	sd	a1,-32(s0)
	ld	a5,-32(s0)
	lbu	a4,0(a5)
	ld	a5,-24(s0)
	sb	a4,0(a5)
	nop
	ld	s0,24(sp)
	.cfi_restore 8
	.cfi_def_cfa 2, 32
	addi	sp,sp,32
	.cfi_def_cfa_offset 0
	jr	ra
	.cfi_endproc
.LFE346:
	.size	_ZNSt11char_traitsIcE6assignERcRKc, .-_ZNSt11char_traitsIcE6assignERcRKc
	.section	.text._ZnwmPv,"axG",@progbits,_ZnwmPv,comdat
	.align	1
	.weak	_ZnwmPv
	.type	_ZnwmPv, @function
_ZnwmPv:
.LFB452:
	.cfi_startproc
	addi	sp,sp,-32
	.cfi_def_cfa_offset 32
	sd	s0,24(sp)
	.cfi_offset 8, -8
	addi	s0,sp,32
	.cfi_def_cfa 8, 0
	sd	a0,-24(s0)
	sd	a1,-32(s0)
	ld	a5,-32(s0)
	mv	a0,a5
	ld	s0,24(sp)
	.cfi_restore 8
	.cfi_def_cfa 2, 32
	addi	sp,sp,32
	.cfi_def_cfa_offset 0
	jr	ra
	.cfi_endproc
.LFE452:
	.size	_ZnwmPv, .-_ZnwmPv
	.section	.text._ZdlPvS_,"axG",@progbits,_ZdlPvS_,comdat
	.align	1
	.weak	_ZdlPvS_
	.type	_ZdlPvS_, @function
_ZdlPvS_:
.LFB454:
	.cfi_startproc
	addi	sp,sp,-32
	.cfi_def_cfa_offset 32
	sd	s0,24(sp)
	.cfi_offset 8, -8
	addi	s0,sp,32
	.cfi_def_cfa 8, 0
	sd	a0,-24(s0)
	sd	a1,-32(s0)
	nop
	ld	s0,24(sp)
	.cfi_restore 8
	.cfi_def_cfa 2, 32
	addi	sp,sp,32
	.cfi_def_cfa_offset 0
	jr	ra
	.cfi_endproc
.LFE454:
	.size	_ZdlPvS_, .-_ZdlPvS_
	.text
	.align	1
	.type	_ZL20__gthread_key_deletei, @function
_ZL20__gthread_key_deletei:
.LFB628:
	.cfi_startproc
	addi	sp,sp,-32
	.cfi_def_cfa_offset 32
	sd	s0,24(sp)
	.cfi_offset 8, -8
	addi	s0,sp,32
	.cfi_def_cfa 8, 0
	mv	a5,a0
	sw	a5,-20(s0)
	li	a5,0
	mv	a0,a5
	ld	s0,24(sp)
	.cfi_restore 8
	.cfi_def_cfa 2, 32
	addi	sp,sp,32
	.cfi_def_cfa_offset 0
	jr	ra
	.cfi_endproc
.LFE628:
	.size	_ZL20__gthread_key_deletei, .-_ZL20__gthread_key_deletei
	.section	.rodata
	.align	3
.LC0:
	.string	"%d"
	.section	.text._ZNSt7__cxx119to_stringEi,"axG",@progbits,_ZNSt7__cxx119to_stringEi,comdat
	.align	1
	.weak	_ZNSt7__cxx119to_stringEi
	.type	_ZNSt7__cxx119to_stringEi, @function
_ZNSt7__cxx119to_stringEi:
.LFB888:
	.cfi_startproc
	addi	sp,sp,-32
	.cfi_def_cfa_offset 32
	sd	ra,24(sp)
	sd	s0,16(sp)
	.cfi_offset 1, -8
	.cfi_offset 8, -16
	addi	s0,sp,32
	.cfi_def_cfa 8, 0
	sd	a0,-24(s0)
	mv	a5,a1
	sw	a5,-28(s0)
	ld	a0,-24(s0)
	lw	a5,-28(s0)
	mv	a4,a5
	lui	a5,%hi(.LC0)
	addi	a3,a5,%lo(.LC0)
	li	a2,16
	lui	a5,%hi(vsnprintf)
	addi	a1,a5,%lo(vsnprintf)
	call	_ZN9__gnu_cxx12__to_xstringINSt7__cxx1112basic_stringIcSt11char_traitsIcESaIcEEEcEET_PFiPT0_mPKS8_PvEmSB_z
	ld	a0,-24(s0)
	ld	ra,24(sp)
	.cfi_restore 1
	ld	s0,16(sp)
	.cfi_restore 8
	.cfi_def_cfa 2, 32
	addi	sp,sp,32
	.cfi_def_cfa_offset 0
	jr	ra
	.cfi_endproc
.LFE888:
	.size	_ZNSt7__cxx119to_stringEi, .-_ZNSt7__cxx119to_stringEi
	.section	.rodata
	.align	3
.LC1:
	.string	"%lu"
	.section	.text._ZNSt7__cxx119to_stringEm,"axG",@progbits,_ZNSt7__cxx119to_stringEm,comdat
	.align	1
	.weak	_ZNSt7__cxx119to_stringEm
	.type	_ZNSt7__cxx119to_stringEm, @function
_ZNSt7__cxx119to_stringEm:
.LFB891:
	.cfi_startproc
	addi	sp,sp,-32
	.cfi_def_cfa_offset 32
	sd	ra,24(sp)
	sd	s0,16(sp)
	.cfi_offset 1, -8
	.cfi_offset 8, -16
	addi	s0,sp,32
	.cfi_def_cfa 8, 0
	sd	a0,-24(s0)
	sd	a1,-32(s0)
	ld	a0,-24(s0)
	ld	a4,-32(s0)
	lui	a5,%hi(.LC1)
	addi	a3,a5,%lo(.LC1)
	li	a2,32
	lui	a5,%hi(vsnprintf)
	addi	a1,a5,%lo(vsnprintf)
	call	_ZN9__gnu_cxx12__to_xstringINSt7__cxx1112basic_stringIcSt11char_traitsIcESaIcEEEcEET_PFiPT0_mPKS8_PvEmSB_z
	ld	a0,-24(s0)
	ld	ra,24(sp)
	.cfi_restore 1
	ld	s0,16(sp)
	.cfi_restore 8
	.cfi_def_cfa 2, 32
	addi	sp,sp,32
	.cfi_def_cfa_offset 0
	jr	ra
	.cfi_endproc
.LFE891:
	.size	_ZNSt7__cxx119to_stringEm, .-_ZNSt7__cxx119to_stringEm
	.section	.srodata
	.align	3
	.type	_ZStL13allocator_arg, @object
	.size	_ZStL13allocator_arg, 1
_ZStL13allocator_arg:
	.zero	1
	.align	3
	.type	_ZStL6ignore, @object
	.size	_ZStL6ignore, 1
_ZStL6ignore:
	.zero	1
	.local	_ZStL8__ioinit
	.comm	_ZStL8__ioinit,1,8
	.section	.text._ZNSt18_Rb_tree_node_base10_S_minimumEPS_,"axG",@progbits,_ZNSt18_Rb_tree_node_base10_S_minimumEPS_,comdat
	.align	1
	.weak	_ZNSt18_Rb_tree_node_base10_S_minimumEPS_
	.type	_ZNSt18_Rb_tree_node_base10_S_minimumEPS_, @function
_ZNSt18_Rb_tree_node_base10_S_minimumEPS_:
.LFB1988:
	.cfi_startproc
	addi	sp,sp,-32
	.cfi_def_cfa_offset 32
	sd	s0,24(sp)
	.cfi_offset 8, -8
	addi	s0,sp,32
	.cfi_def_cfa 8, 0
	sd	a0,-24(s0)
.L13:
	ld	a5,-24(s0)
	ld	a5,16(a5)
	beq	a5,zero,.L12
	ld	a5,-24(s0)
	ld	a5,16(a5)
	sd	a5,-24(s0)
	j	.L13
.L12:
	ld	a5,-24(s0)
	mv	a0,a5
	ld	s0,24(sp)
	.cfi_restore 8
	.cfi_def_cfa 2, 32
	addi	sp,sp,32
	.cfi_def_cfa_offset 0
	jr	ra
	.cfi_endproc
.LFE1988:
	.size	_ZNSt18_Rb_tree_node_base10_S_minimumEPS_, .-_ZNSt18_Rb_tree_node_base10_S_minimumEPS_
	.section	.text._ZNSt18_Rb_tree_node_base10_S_maximumEPS_,"axG",@progbits,_ZNSt18_Rb_tree_node_base10_S_maximumEPS_,comdat
	.align	1
	.weak	_ZNSt18_Rb_tree_node_base10_S_maximumEPS_
	.type	_ZNSt18_Rb_tree_node_base10_S_maximumEPS_, @function
_ZNSt18_Rb_tree_node_base10_S_maximumEPS_:
.LFB1990:
	.cfi_startproc
	addi	sp,sp,-32
	.cfi_def_cfa_offset 32
	sd	s0,24(sp)
	.cfi_offset 8, -8
	addi	s0,sp,32
	.cfi_def_cfa 8, 0
	sd	a0,-24(s0)
.L17:
	ld	a5,-24(s0)
	ld	a5,24(a5)
	beq	a5,zero,.L16
	ld	a5,-24(s0)
	ld	a5,24(a5)
	sd	a5,-24(s0)
	j	.L17
.L16:
	ld	a5,-24(s0)
	mv	a0,a5
	ld	s0,24(sp)
	.cfi_restore 8
	.cfi_def_cfa 2, 32
	addi	sp,sp,32
	.cfi_def_cfa_offset 0
	jr	ra
	.cfi_endproc
.LFE1990:
	.size	_ZNSt18_Rb_tree_node_base10_S_maximumEPS_, .-_ZNSt18_Rb_tree_node_base10_S_maximumEPS_
	.section	.text._ZNSt15_Rb_tree_headerC2Ev,"axG",@progbits,_ZNSt15_Rb_tree_headerC5Ev,comdat
	.align	1
	.weak	_ZNSt15_Rb_tree_headerC2Ev
	.type	_ZNSt15_Rb_tree_headerC2Ev, @function
_ZNSt15_Rb_tree_headerC2Ev:
.LFB1996:
	.cfi_startproc
	addi	sp,sp,-32
	.cfi_def_cfa_offset 32
	sd	ra,24(sp)
	sd	s0,16(sp)
	.cfi_offset 1, -8
	.cfi_offset 8, -16
	addi	s0,sp,32
	.cfi_def_cfa 8, 0
	sd	a0,-24(s0)
	ld	a5,-24(s0)
	sw	zero,0(a5)
	ld	a0,-24(s0)
	call	_ZNSt15_Rb_tree_header8_M_resetEv
	nop
	ld	ra,24(sp)
	.cfi_restore 1
	ld	s0,16(sp)
	.cfi_restore 8
	.cfi_def_cfa 2, 32
	addi	sp,sp,32
	.cfi_def_cfa_offset 0
	jr	ra
	.cfi_endproc
.LFE1996:
	.size	_ZNSt15_Rb_tree_headerC2Ev, .-_ZNSt15_Rb_tree_headerC2Ev
	.weak	_ZNSt15_Rb_tree_headerC1Ev
	.set	_ZNSt15_Rb_tree_headerC1Ev,_ZNSt15_Rb_tree_headerC2Ev
	.section	.text._ZNSt15_Rb_tree_header8_M_resetEv,"axG",@progbits,_ZNSt15_Rb_tree_header8_M_resetEv,comdat
	.align	1
	.weak	_ZNSt15_Rb_tree_header8_M_resetEv
	.type	_ZNSt15_Rb_tree_header8_M_resetEv, @function
_ZNSt15_Rb_tree_header8_M_resetEv:
.LFB2002:
	.cfi_startproc
	addi	sp,sp,-32
	.cfi_def_cfa_offset 32
	sd	s0,24(sp)
	.cfi_offset 8, -8
	addi	s0,sp,32
	.cfi_def_cfa 8, 0
	sd	a0,-24(s0)
	ld	a5,-24(s0)
	sd	zero,8(a5)
	ld	a4,-24(s0)
	ld	a5,-24(s0)
	sd	a4,16(a5)
	ld	a4,-24(s0)
	ld	a5,-24(s0)
	sd	a4,24(a5)
	ld	a5,-24(s0)
	sd	zero,32(a5)
	nop
	ld	s0,24(sp)
	.cfi_restore 8
	.cfi_def_cfa 2, 32
	addi	sp,sp,32
	.cfi_def_cfa_offset 0
	jr	ra
	.cfi_endproc
.LFE2002:
	.size	_ZNSt15_Rb_tree_header8_M_resetEv, .-_ZNSt15_Rb_tree_header8_M_resetEv
	.section	.text._ZSt16__deque_buf_sizem,"axG",@progbits,_ZSt16__deque_buf_sizem,comdat
	.align	1
	.weak	_ZSt16__deque_buf_sizem
	.type	_ZSt16__deque_buf_sizem, @function
_ZSt16__deque_buf_sizem:
.LFB2391:
	.cfi_startproc
	addi	sp,sp,-32
	.cfi_def_cfa_offset 32
	sd	s0,24(sp)
	.cfi_offset 8, -8
	addi	s0,sp,32
	.cfi_def_cfa 8, 0
	sd	a0,-24(s0)
	ld	a4,-24(s0)
	li	a5,511
	bgtu	a4,a5,.L22
	li	a4,512
	ld	a5,-24(s0)
	divu	a5,a4,a5
	j	.L24
.L22:
	li	a5,1
.L24:
	mv	a0,a5
	ld	s0,24(sp)
	.cfi_restore 8
	.cfi_def_cfa 2, 32
	addi	sp,sp,32
	.cfi_def_cfa_offset 0
	jr	ra
	.cfi_endproc
.LFE2391:
	.size	_ZSt16__deque_buf_sizem, .-_ZSt16__deque_buf_sizem
	.section	.text._ZNSt12_Base_bitsetILm1EEC2Ey,"axG",@progbits,_ZNSt12_Base_bitsetILm1EEC5Ey,comdat
	.align	1
	.weak	_ZNSt12_Base_bitsetILm1EEC2Ey
	.type	_ZNSt12_Base_bitsetILm1EEC2Ey, @function
_ZNSt12_Base_bitsetILm1EEC2Ey:
.LFB2630:
	.cfi_startproc
	addi	sp,sp,-32
	.cfi_def_cfa_offset 32
	sd	s0,24(sp)
	.cfi_offset 8, -8
	addi	s0,sp,32
	.cfi_def_cfa 8, 0
	sd	a0,-24(s0)
	sd	a1,-32(s0)
	ld	a5,-24(s0)
	ld	a4,-32(s0)
	sd	a4,0(a5)
	nop
	ld	s0,24(sp)
	.cfi_restore 8
	.cfi_def_cfa 2, 32
	addi	sp,sp,32
	.cfi_def_cfa_offset 0
	jr	ra
	.cfi_endproc
.LFE2630:
	.size	_ZNSt12_Base_bitsetILm1EEC2Ey, .-_ZNSt12_Base_bitsetILm1EEC2Ey
	.weak	_ZNSt12_Base_bitsetILm1EEC1Ey
	.set	_ZNSt12_Base_bitsetILm1EEC1Ey,_ZNSt12_Base_bitsetILm1EEC2Ey
	.section	.text._ZNSt12_Base_bitsetILm1EE11_S_whichbitEm,"axG",@progbits,_ZNSt12_Base_bitsetILm1EE11_S_whichbitEm,comdat
	.align	1
	.weak	_ZNSt12_Base_bitsetILm1EE11_S_whichbitEm
	.type	_ZNSt12_Base_bitsetILm1EE11_S_whichbitEm, @function
_ZNSt12_Base_bitsetILm1EE11_S_whichbitEm:
.LFB2634:
	.cfi_startproc
	addi	sp,sp,-32
	.cfi_def_cfa_offset 32
	sd	s0,24(sp)
	.cfi_offset 8, -8
	addi	s0,sp,32
	.cfi_def_cfa 8, 0
	sd	a0,-24(s0)
	ld	a5,-24(s0)
	andi	a5,a5,63
	mv	a0,a5
	ld	s0,24(sp)
	.cfi_restore 8
	.cfi_def_cfa 2, 32
	addi	sp,sp,32
	.cfi_def_cfa_offset 0
	jr	ra
	.cfi_endproc
.LFE2634:
	.size	_ZNSt12_Base_bitsetILm1EE11_S_whichbitEm, .-_ZNSt12_Base_bitsetILm1EE11_S_whichbitEm
	.section	.text._ZNSt12_Base_bitsetILm1EE10_S_maskbitEm,"axG",@progbits,_ZNSt12_Base_bitsetILm1EE10_S_maskbitEm,comdat
	.align	1
	.weak	_ZNSt12_Base_bitsetILm1EE10_S_maskbitEm
	.type	_ZNSt12_Base_bitsetILm1EE10_S_maskbitEm, @function
_ZNSt12_Base_bitsetILm1EE10_S_maskbitEm:
.LFB2635:
	.cfi_startproc
	addi	sp,sp,-32
	.cfi_def_cfa_offset 32
	sd	ra,24(sp)
	sd	s0,16(sp)
	.cfi_offset 1, -8
	.cfi_offset 8, -16
	addi	s0,sp,32
	.cfi_def_cfa 8, 0
	sd	a0,-24(s0)
	ld	a0,-24(s0)
	call	_ZNSt12_Base_bitsetILm1EE11_S_whichbitEm
	mv	a5,a0
	sext.w	a5,a5
	mv	a4,a5
	li	a5,1
	sll	a5,a5,a4
	mv	a0,a5
	ld	ra,24(sp)
	.cfi_restore 1
	ld	s0,16(sp)
	.cfi_restore 8
	.cfi_def_cfa 2, 32
	addi	sp,sp,32
	.cfi_def_cfa_offset 0
	jr	ra
	.cfi_endproc
.LFE2635:
	.size	_ZNSt12_Base_bitsetILm1EE10_S_maskbitEm, .-_ZNSt12_Base_bitsetILm1EE10_S_maskbitEm
	.section	.text._ZNSt12_Base_bitsetILm1EE10_M_getwordEm,"axG",@progbits,_ZNSt12_Base_bitsetILm1EE10_M_getwordEm,comdat
	.align	1
	.weak	_ZNSt12_Base_bitsetILm1EE10_M_getwordEm
	.type	_ZNSt12_Base_bitsetILm1EE10_M_getwordEm, @function
_ZNSt12_Base_bitsetILm1EE10_M_getwordEm:
.LFB2636:
	.cfi_startproc
	addi	sp,sp,-32
	.cfi_def_cfa_offset 32
	sd	s0,24(sp)
	.cfi_offset 8, -8
	addi	s0,sp,32
	.cfi_def_cfa 8, 0
	sd	a0,-24(s0)
	sd	a1,-32(s0)
	ld	a5,-24(s0)
	mv	a0,a5
	ld	s0,24(sp)
	.cfi_restore 8
	.cfi_def_cfa 2, 32
	addi	sp,sp,32
	.cfi_def_cfa_offset 0
	jr	ra
	.cfi_endproc
.LFE2636:
	.size	_ZNSt12_Base_bitsetILm1EE10_M_getwordEm, .-_ZNSt12_Base_bitsetILm1EE10_M_getwordEm
	.section	.text._ZNKSt12_Base_bitsetILm1EE10_M_getwordEm,"axG",@progbits,_ZNKSt12_Base_bitsetILm1EE10_M_getwordEm,comdat
	.align	1
	.weak	_ZNKSt12_Base_bitsetILm1EE10_M_getwordEm
	.type	_ZNKSt12_Base_bitsetILm1EE10_M_getwordEm, @function
_ZNKSt12_Base_bitsetILm1EE10_M_getwordEm:
.LFB2637:
	.cfi_startproc
	addi	sp,sp,-32
	.cfi_def_cfa_offset 32
	sd	s0,24(sp)
	.cfi_offset 8, -8
	addi	s0,sp,32
	.cfi_def_cfa 8, 0
	sd	a0,-24(s0)
	sd	a1,-32(s0)
	ld	a5,-24(s0)
	ld	a5,0(a5)
	mv	a0,a5
	ld	s0,24(sp)
	.cfi_restore 8
	.cfi_def_cfa 2, 32
	addi	sp,sp,32
	.cfi_def_cfa_offset 0
	jr	ra
	.cfi_endproc
.LFE2637:
	.size	_ZNKSt12_Base_bitsetILm1EE10_M_getwordEm, .-_ZNKSt12_Base_bitsetILm1EE10_M_getwordEm
	.section	.text._ZNKSt12_Base_bitsetILm1EE9_M_is_anyEv,"axG",@progbits,_ZNKSt12_Base_bitsetILm1EE9_M_is_anyEv,comdat
	.align	1
	.weak	_ZNKSt12_Base_bitsetILm1EE9_M_is_anyEv
	.type	_ZNKSt12_Base_bitsetILm1EE9_M_is_anyEv, @function
_ZNKSt12_Base_bitsetILm1EE9_M_is_anyEv:
.LFB2651:
	.cfi_startproc
	addi	sp,sp,-32
	.cfi_def_cfa_offset 32
	sd	s0,24(sp)
	.cfi_offset 8, -8
	addi	s0,sp,32
	.cfi_def_cfa 8, 0
	sd	a0,-24(s0)
	ld	a5,-24(s0)
	ld	a5,0(a5)
	snez	a5,a5
	andi	a5,a5,0xff
	mv	a0,a5
	ld	s0,24(sp)
	.cfi_restore 8
	.cfi_def_cfa 2, 32
	addi	sp,sp,32
	.cfi_def_cfa_offset 0
	jr	ra
	.cfi_endproc
.LFE2651:
	.size	_ZNKSt12_Base_bitsetILm1EE9_M_is_anyEv, .-_ZNKSt12_Base_bitsetILm1EE9_M_is_anyEv
	.section	.text._ZNKSt12_Base_bitsetILm1EE14_M_do_to_ulongEv,"axG",@progbits,_ZNKSt12_Base_bitsetILm1EE14_M_do_to_ulongEv,comdat
	.align	1
	.weak	_ZNKSt12_Base_bitsetILm1EE14_M_do_to_ulongEv
	.type	_ZNKSt12_Base_bitsetILm1EE14_M_do_to_ulongEv, @function
_ZNKSt12_Base_bitsetILm1EE14_M_do_to_ulongEv:
.LFB2653:
	.cfi_startproc
	addi	sp,sp,-32
	.cfi_def_cfa_offset 32
	sd	s0,24(sp)
	.cfi_offset 8, -8
	addi	s0,sp,32
	.cfi_def_cfa 8, 0
	sd	a0,-24(s0)
	ld	a5,-24(s0)
	ld	a5,0(a5)
	mv	a0,a5
	ld	s0,24(sp)
	.cfi_restore 8
	.cfi_def_cfa 2, 32
	addi	sp,sp,32
	.cfi_def_cfa_offset 0
	jr	ra
	.cfi_endproc
.LFE2653:
	.size	_ZNKSt12_Base_bitsetILm1EE14_M_do_to_ulongEv, .-_ZNKSt12_Base_bitsetILm1EE14_M_do_to_ulongEv
	.section	.srodata
	.align	2
	.type	_ZL11BLOCK_COUNT, @object
	.size	_ZL11BLOCK_COUNT, 4
_ZL11BLOCK_COUNT:
	.word	256
	.section	.rodata
	.align	3
.LC2:
	.string	"."
	.text
	.align	1
	.type	_ZZ4mpreNSt7__cxx1112basic_stringIcSt11char_traitsIcESaIcEEEiENKUlvE_clEv, @function
_ZZ4mpreNSt7__cxx1112basic_stringIcSt11char_traitsIcESaIcEEEiENKUlvE_clEv:
.LFB2760:
	.cfi_startproc
	addi	sp,sp,-32
	.cfi_def_cfa_offset 32
	sd	ra,24(sp)
	sd	s0,16(sp)
	.cfi_offset 1, -8
	.cfi_offset 8, -16
	addi	s0,sp,32
	.cfi_def_cfa 8, 0
	sd	a0,-24(s0)
	ld	a5,-24(s0)
	ld	a5,0(a5)
	lw	a5,0(a5)
	mv	a1,a5
	lui	a5,%hi(_ZSt4cerr)
	addi	a0,a5,%lo(_ZSt4cerr)
	call	_ZNSolsEi
	mv	a4,a0
	lui	a5,%hi(.LC2)
	addi	a1,a5,%lo(.LC2)
	mv	a0,a4
	call	_ZStlsISt11char_traitsIcEERSt13basic_ostreamIcT_ES5_PKc
	mv	a4,a0
	ld	a5,-24(s0)
	ld	a5,8(a5)
	mv	a1,a5
	mv	a0,a4
	call	_ZStlsIcSt11char_traitsIcESaIcEERSt13basic_ostreamIT_T0_ES7_RKNSt7__cxx1112basic_stringIS4_S5_T1_EE
	mv	a4,a0
	lui	a5,%hi(_ZSt4endlIcSt11char_traitsIcEERSt13basic_ostreamIT_T0_ES6_)
	addi	a1,a5,%lo(_ZSt4endlIcSt11char_traitsIcEERSt13basic_ostreamIT_T0_ES6_)
	mv	a0,a4
	call	_ZNSolsEPFRSoS_E
	li	a5,0
	mv	a0,a5
	ld	ra,24(sp)
	.cfi_restore 1
	ld	s0,16(sp)
	.cfi_restore 8
	.cfi_def_cfa 2, 32
	addi	sp,sp,32
	.cfi_def_cfa_offset 0
	jr	ra
	.cfi_endproc
.LFE2760:
	.size	_ZZ4mpreNSt7__cxx1112basic_stringIcSt11char_traitsIcESaIcEEEiENKUlvE_clEv, .-_ZZ4mpreNSt7__cxx1112basic_stringIcSt11char_traitsIcESaIcEEEiENKUlvE_clEv
	.section	.rodata
	.align	3
.LC3:
	.string	"\320\236\320\250\320\230\320\221\320\232\320\220"
	.text
	.align	1
	.type	_ZZ4mpreNSt7__cxx1112basic_stringIcSt11char_traitsIcESaIcEEEiENKUlvE0_clEv, @function
_ZZ4mpreNSt7__cxx1112basic_stringIcSt11char_traitsIcESaIcEEEiENKUlvE0_clEv:
.LFB2761:
	.cfi_startproc
	addi	sp,sp,-48
	.cfi_def_cfa_offset 48
	sd	ra,40(sp)
	sd	s0,32(sp)
	.cfi_offset 1, -8
	.cfi_offset 8, -16
	addi	s0,sp,48
	.cfi_def_cfa 8, 0
	sd	a0,-40(s0)
	ld	a5,-40(s0)
	ld	a4,0(a5)
	li	a2,0
	lui	a5,%hi(.LC3)
	addi	a1,a5,%lo(.LC3)
	mv	a0,a4
	call	_ZNKSt7__cxx1112basic_stringIcSt11char_traitsIcESaIcEE4findEPKcm
	mv	a5,a0
	sw	a5,-20(s0)
	lw	a5,-20(s0)
	sext.w	a4,a5
	li	a5,-1
	sub	a5,a4,a5
	seqz	a5,a5
	andi	a5,a5,0xff
	mv	a0,a5
	ld	ra,40(sp)
	.cfi_restore 1
	ld	s0,32(sp)
	.cfi_restore 8
	.cfi_def_cfa 2, 48
	addi	sp,sp,48
	.cfi_def_cfa_offset 0
	jr	ra
	.cfi_endproc
.LFE2761:
	.size	_ZZ4mpreNSt7__cxx1112basic_stringIcSt11char_traitsIcESaIcEEEiENKUlvE0_clEv, .-_ZZ4mpreNSt7__cxx1112basic_stringIcSt11char_traitsIcESaIcEEEiENKUlvE0_clEv
	.section	.rodata
	.align	3
.LC4:
	.string	"^^^ \320\232\321\200\320\270\321\202\320\270\321\207\320\265\321\201\320\272\320\276\320\265 \321\201\320\276\320\276\320\261\321\211\320\265\320\275\320\270\320\265 ^^^ \320\236\321\201\321\202\320\260\320\275\320\276\320\262\320\272\320\260 \320\262\321\213\320\277\320\276\320\273\320\275\320\265\320\275\320\270\321\217 \320\277\321\200\320\276\320\263\321\200\320\260\320\274\320\274\321\213"
	.text
	.align	1
	.type	_ZZ4mpreNSt7__cxx1112basic_stringIcSt11char_traitsIcESaIcEEEiENKUlvE1_clEv, @function
_ZZ4mpreNSt7__cxx1112basic_stringIcSt11char_traitsIcESaIcEEEiENKUlvE1_clEv:
.LFB2762:
	.cfi_startproc
	.cfi_personality 0x9b,DW.ref.__gxx_personality_v0
	.cfi_lsda 0x1b,.LLSDA2762
	addi	sp,sp,-96
	.cfi_def_cfa_offset 96
	sd	ra,88(sp)
	sd	s0,80(sp)
	sd	s1,72(sp)
	.cfi_offset 1, -8
	.cfi_offset 8, -16
	.cfi_offset 9, -24
	addi	s0,sp,96
	.cfi_def_cfa 8, 0
	sd	a0,-88(s0)
	addi	a5,s0,-40
	mv	a0,a5
	call	_ZNSaIcEC1Ev
	addi	a5,s0,-40
	addi	a4,s0,-72
	mv	a2,a5
	lui	a5,%hi(.LC4)
	addi	a1,a5,%lo(.LC4)
	mv	a0,a4
.LEHB0:
	call	_ZNSt7__cxx1112basic_stringIcSt11char_traitsIcESaIcEEC1EPKcRKS3_
.LEHE0:
	addi	a5,s0,-72
	li	a1,4
	mv	a0,a5
.LEHB1:
	call	_Z4mpreNSt7__cxx1112basic_stringIcSt11char_traitsIcESaIcEEEi
.LEHE1:
	addi	a5,s0,-72
	mv	a0,a5
	call	_ZNSt7__cxx1112basic_stringIcSt11char_traitsIcESaIcEED1Ev
	addi	a5,s0,-40
	mv	a0,a5
	call	_ZNSaIcED1Ev
	li	a0,0
	call	exit
.L46:
	mv	s1,a0
	addi	a5,s0,-72
	mv	a0,a5
	call	_ZNSt7__cxx1112basic_stringIcSt11char_traitsIcESaIcEED1Ev
	j	.L44
.L45:
	mv	s1,a0
.L44:
	addi	a5,s0,-40
	mv	a0,a5
	call	_ZNSaIcED1Ev
	mv	a5,s1
	mv	a0,a5
.LEHB2:
	call	_Unwind_Resume
.LEHE2:
	.cfi_endproc
.LFE2762:
	.globl	__gxx_personality_v0
	.section	.gcc_except_table,"aw",@progbits
.LLSDA2762:
	.byte	0xff
	.byte	0xff
	.byte	0x3
	.byte	0x27
	.4byte	.LEHB0-.LFB2762
	.4byte	.LEHE0-.LEHB0
	.4byte	.L45-.LFB2762
	.byte	0
	.4byte	.LEHB1-.LFB2762
	.4byte	.LEHE1-.LEHB1
	.4byte	.L46-.LFB2762
	.byte	0
	.4byte	.LEHB2-.LFB2762
	.4byte	.LEHE2-.LEHB2
	.4byte	0
	.byte	0
	.text
	.size	_ZZ4mpreNSt7__cxx1112basic_stringIcSt11char_traitsIcESaIcEEEiENKUlvE1_clEv, .-_ZZ4mpreNSt7__cxx1112basic_stringIcSt11char_traitsIcESaIcEEEiENKUlvE1_clEv
	.section	.rodata
	.align	3
.LC5:
	.string	"sleep 3"
	.text
	.align	1
	.type	_ZZ4mpreNSt7__cxx1112basic_stringIcSt11char_traitsIcESaIcEEEiENKUlvE2_clEv, @function
_ZZ4mpreNSt7__cxx1112basic_stringIcSt11char_traitsIcESaIcEEEiENKUlvE2_clEv:
.LFB2763:
	.cfi_startproc
	addi	sp,sp,-48
	.cfi_def_cfa_offset 48
	sd	ra,40(sp)
	sd	s0,32(sp)
	.cfi_offset 1, -8
	.cfi_offset 8, -16
	addi	s0,sp,48
	.cfi_def_cfa 8, 0
	sd	a0,-40(s0)
	lui	a5,%hi(.LC5)
	addi	a0,a5,%lo(.LC5)
	call	system
	mv	a5,a0
	sw	a5,-20(s0)
	lw	a5,-20(s0)
	sext.w	a5,a5
	snez	a5,a5
	andi	a5,a5,0xff
	mv	a0,a5
	ld	ra,40(sp)
	.cfi_restore 1
	ld	s0,32(sp)
	.cfi_restore 8
	.cfi_def_cfa 2, 48
	addi	sp,sp,48
	.cfi_def_cfa_offset 0
	jr	ra
	.cfi_endproc
.LFE2763:
	.size	_ZZ4mpreNSt7__cxx1112basic_stringIcSt11char_traitsIcESaIcEEEiENKUlvE2_clEv, .-_ZZ4mpreNSt7__cxx1112basic_stringIcSt11char_traitsIcESaIcEEEiENKUlvE2_clEv
	.section	.rodata
	.align	3
.LC6:
	.string	"\320\236\320\250\320\230\320\221\320\232\320\220 \320\262\321\213\320\262\320\276\320\264\320\260 \321\203\320\262\320\265\320\264\320\276\320\274\320\273\320\265\320\275\320\270\321\217"
	.align	3
.LC7:
	.string	" \320\236\321\201\321\202\320\260\320\275\320\276\320\262\320\272\320\260 \320\277\321\200\320\276\320\263\321\200\320\260\320\274\320\274\321\213"
	.text
	.align	1
	.globl	_Z4mpreNSt7__cxx1112basic_stringIcSt11char_traitsIcESaIcEEEi
	.type	_Z4mpreNSt7__cxx1112basic_stringIcSt11char_traitsIcESaIcEEEi, @function
_Z4mpreNSt7__cxx1112basic_stringIcSt11char_traitsIcESaIcEEEi:
.LFB2759:
	.cfi_startproc
	.cfi_personality 0x9b,DW.ref.__gxx_personality_v0
	.cfi_lsda 0x1b,.LLSDA2759
	addi	sp,sp,-128
	.cfi_def_cfa_offset 128
	sd	ra,120(sp)
	sd	s0,112(sp)
	sd	s1,104(sp)
	.cfi_offset 1, -8
	.cfi_offset 8, -16
	.cfi_offset 9, -24
	addi	s0,sp,128
	.cfi_def_cfa 8, 0
	sd	a0,-120(s0)
	mv	a5,a1
	sw	a5,-124(s0)
	addi	a5,s0,-124
	sd	a5,-112(s0)
	ld	a5,-120(s0)
	sd	a5,-104(s0)
	addi	a5,s0,-112
	mv	a0,a5
.LEHB3:
	call	_ZZ4mpreNSt7__cxx1112basic_stringIcSt11char_traitsIcESaIcEEEiENKUlvE_clEv
.LEHE3:
	mv	a5,a0
	beq	a5,zero,.L50
	addi	a5,s0,-64
	mv	a0,a5
	call	_ZNSaIcEC1Ev
	addi	a5,s0,-64
	addi	a4,s0,-96
	mv	a2,a5
	lui	a5,%hi(.LC6)
	addi	a1,a5,%lo(.LC6)
	mv	a0,a4
.LEHB4:
	call	_ZNSt7__cxx1112basic_stringIcSt11char_traitsIcESaIcEEC1EPKcRKS3_
.LEHE4:
	addi	a5,s0,-96
	li	a1,2
	mv	a0,a5
.LEHB5:
	call	_Z4mpreNSt7__cxx1112basic_stringIcSt11char_traitsIcESaIcEEEi
.LEHE5:
	addi	a5,s0,-96
	mv	a0,a5
	call	_ZNSt7__cxx1112basic_stringIcSt11char_traitsIcESaIcEED1Ev
	addi	a5,s0,-64
	mv	a0,a5
	call	_ZNSaIcED1Ev
	j	.L51
.L50:
	ld	a5,-120(s0)
	sd	a5,-56(s0)
	addi	a5,s0,-56
	mv	a0,a5
	call	_ZZ4mpreNSt7__cxx1112basic_stringIcSt11char_traitsIcESaIcEEEiENKUlvE0_clEv
	mv	a5,a0
	bne	a5,zero,.L51
	addi	a5,s0,-48
	mv	a0,a5
.LEHB6:
	call	_ZZ4mpreNSt7__cxx1112basic_stringIcSt11char_traitsIcESaIcEEEiENKUlvE1_clEv
	mv	a5,a0
	beq	a5,zero,.L52
	li	a1,4
	lui	a5,%hi(_ZSt4cerr)
	addi	a0,a5,%lo(_ZSt4cerr)
	call	_ZNSolsEi
	mv	a4,a0
	lui	a5,%hi(.LC7)
	addi	a1,a5,%lo(.LC7)
	mv	a0,a4
	call	_ZStlsISt11char_traitsIcEERSt13basic_ostreamIcT_ES5_PKc
	mv	a4,a0
	lui	a5,%hi(_ZSt4endlIcSt11char_traitsIcEERSt13basic_ostreamIT_T0_ES6_)
	addi	a1,a5,%lo(_ZSt4endlIcSt11char_traitsIcEERSt13basic_ostreamIT_T0_ES6_)
	mv	a0,a4
	call	_ZNSolsEPFRSoS_E
	li	a0,1
	call	exit
.L52:
	addi	a5,s0,-40
	mv	a0,a5
	call	_ZZ4mpreNSt7__cxx1112basic_stringIcSt11char_traitsIcESaIcEEEiENKUlvE2_clEv
	mv	a5,a0
	beq	a5,zero,.L51
	li	a1,5
	lui	a5,%hi(_ZSt4cerr)
	addi	a0,a5,%lo(_ZSt4cerr)
	call	_ZNSolsEi
	mv	a4,a0
	lui	a5,%hi(.LC7)
	addi	a1,a5,%lo(.LC7)
	mv	a0,a4
	call	_ZStlsISt11char_traitsIcEERSt13basic_ostreamIcT_ES5_PKc
	mv	a4,a0
	lui	a5,%hi(_ZSt4endlIcSt11char_traitsIcEERSt13basic_ostreamIT_T0_ES6_)
	addi	a1,a5,%lo(_ZSt4endlIcSt11char_traitsIcEERSt13basic_ostreamIT_T0_ES6_)
	mv	a0,a4
	call	_ZNSolsEPFRSoS_E
	li	a0,1
	call	exit
.L51:
	li	a5,1
	j	.L58
.L57:
	mv	s1,a0
	addi	a5,s0,-96
	mv	a0,a5
	call	_ZNSt7__cxx1112basic_stringIcSt11char_traitsIcESaIcEED1Ev
	j	.L55
.L56:
	mv	s1,a0
.L55:
	addi	a5,s0,-64
	mv	a0,a5
	call	_ZNSaIcED1Ev
	mv	a5,s1
	mv	a0,a5
	call	_Unwind_Resume
.LEHE6:
.L58:
	mv	a0,a5
	ld	ra,120(sp)
	.cfi_restore 1
	ld	s0,112(sp)
	.cfi_restore 8
	.cfi_def_cfa 2, 128
	ld	s1,104(sp)
	.cfi_restore 9
	addi	sp,sp,128
	.cfi_def_cfa_offset 0
	jr	ra
	.cfi_endproc
.LFE2759:
	.section	.gcc_except_table
.LLSDA2759:
	.byte	0xff
	.byte	0xff
	.byte	0x3
	.byte	0x34
	.4byte	.LEHB3-.LFB2759
	.4byte	.LEHE3-.LEHB3
	.4byte	0
	.byte	0
	.4byte	.LEHB4-.LFB2759
	.4byte	.LEHE4-.LEHB4
	.4byte	.L56-.LFB2759
	.byte	0
	.4byte	.LEHB5-.LFB2759
	.4byte	.LEHE5-.LEHB5
	.4byte	.L57-.LFB2759
	.byte	0
	.4byte	.LEHB6-.LFB2759
	.4byte	.LEHE6-.LEHB6
	.4byte	0
	.byte	0
	.text
	.size	_Z4mpreNSt7__cxx1112basic_stringIcSt11char_traitsIcESaIcEEEi, .-_Z4mpreNSt7__cxx1112basic_stringIcSt11char_traitsIcESaIcEEEi
	.section	.rodata
	.align	3
.LC8:
	.string	""
	.align	3
.LC9:
	.string	" => "
	.align	3
.LC10:
	.string	"( // __"
	.align	3
.LC11:
	.string	"__ "
	.align	3
.LC12:
	.string	"\n"
	.align	3
.LC13:
	.string	"\t[bmf]=>"
	.align	3
.LC14:
	.string	" ("
	.align	3
.LC15:
	.string	"),"
	.align	3
.LC16:
	.string	"\t[val]=>"
	.align	3
.LC17:
	.string	"\t[offset]=>"
	.align	3
.LC18:
	.string	")\n"
	.text
	.align	1
	.globl	_Z4mpre6TblockNSt7__cxx1112basic_stringIcSt11char_traitsIcESaIcEEEiS5_S5_
	.type	_Z4mpre6TblockNSt7__cxx1112basic_stringIcSt11char_traitsIcESaIcEEEiS5_S5_, @function
_Z4mpre6TblockNSt7__cxx1112basic_stringIcSt11char_traitsIcESaIcEEEiS5_S5_:
.LFB2764:
	.cfi_startproc
	.cfi_personality 0x9b,DW.ref.__gxx_personality_v0
	.cfi_lsda 0x1b,.LLSDA2764
	addi	sp,sp,-496
	.cfi_def_cfa_offset 496
	sd	ra,488(sp)
	sd	s0,480(sp)
	sd	s1,472(sp)
	sd	s2,464(sp)
	.cfi_offset 1, -8
	.cfi_offset 8, -16
	.cfi_offset 9, -24
	.cfi_offset 18, -32
	addi	s0,sp,496
	.cfi_def_cfa 8, 0
	mv	s1,a0
	sd	a1,-472(s0)
	mv	a5,a2
	sd	a3,-488(s0)
	sd	a4,-496(s0)
	sw	a5,-476(s0)
	addi	a5,s0,-424
	mv	a0,a5
	call	_ZNSaIcEC1Ev
	addi	a5,s0,-424
	addi	a4,s0,-456
	mv	a2,a5
	lui	a5,%hi(.LC8)
	addi	a1,a5,%lo(.LC8)
	mv	a0,a4
.LEHB7:
	call	_ZNSt7__cxx1112basic_stringIcSt11char_traitsIcESaIcEEC1EPKcRKS3_
.LEHE7:
	addi	a5,s0,-424
	mv	a0,a5
	call	_ZNSaIcED1Ev
	ld	a1,-488(s0)
	lui	a5,%hi(_ZSt4cerr)
	addi	a0,a5,%lo(_ZSt4cerr)
.LEHB8:
	call	_ZStlsIcSt11char_traitsIcESaIcEERSt13basic_ostreamIT_T0_ES7_RKNSt7__cxx1112basic_stringIS4_S5_T1_EE
	mv	a4,a0
	addi	a5,s0,-456
	mv	a1,a5
	mv	a0,a4
	call	_ZStlsIcSt11char_traitsIcESaIcEERSt13basic_ostreamIT_T0_ES7_RKNSt7__cxx1112basic_stringIS4_S5_T1_EE
	mv	a4,a0
	lui	a5,%hi(.LC9)
	addi	a1,a5,%lo(.LC9)
	mv	a0,a4
	call	_ZStlsISt11char_traitsIcEERSt13basic_ostreamIcT_ES5_PKc
	mv	a4,a0
	lui	a5,%hi(.LC10)
	addi	a1,a5,%lo(.LC10)
	mv	a0,a4
	call	_ZStlsISt11char_traitsIcEERSt13basic_ostreamIcT_ES5_PKc
	mv	s2,a0
	addi	a5,s0,-416
	lw	a4,-476(s0)
	mv	a1,a4
	mv	a0,a5
	call	_ZNSt7__cxx119to_stringEi
.LEHE8:
	addi	a5,s0,-416
	mv	a1,a5
	mv	a0,s2
.LEHB9:
	call	_ZStlsIcSt11char_traitsIcESaIcEERSt13basic_ostreamIT_T0_ES7_RKNSt7__cxx1112basic_stringIS4_S5_T1_EE
	mv	a4,a0
	lui	a5,%hi(.LC11)
	addi	a1,a5,%lo(.LC11)
	mv	a0,a4
	call	_ZStlsISt11char_traitsIcEERSt13basic_ostreamIcT_ES5_PKc
	mv	a5,a0
	ld	a1,-472(s0)
	mv	a0,a5
	call	_ZStlsIcSt11char_traitsIcESaIcEERSt13basic_ostreamIT_T0_ES7_RKNSt7__cxx1112basic_stringIS4_S5_T1_EE
	mv	a4,a0
	lui	a5,%hi(.LC12)
	addi	a1,a5,%lo(.LC12)
	mv	a0,a4
	call	_ZStlsISt11char_traitsIcEERSt13basic_ostreamIcT_ES5_PKc
.LEHE9:
	addi	a5,s0,-416
	mv	a0,a5
	call	_ZNSt7__cxx1112basic_stringIcSt11char_traitsIcESaIcEED1Ev
	ld	a1,-488(s0)
	lui	a5,%hi(_ZSt4cerr)
	addi	a0,a5,%lo(_ZSt4cerr)
.LEHB10:
	call	_ZStlsIcSt11char_traitsIcESaIcEERSt13basic_ostreamIT_T0_ES7_RKNSt7__cxx1112basic_stringIS4_S5_T1_EE
	mv	a4,a0
	lui	a5,%hi(.LC13)
	addi	a1,a5,%lo(.LC13)
	mv	a0,a4
	call	_ZStlsISt11char_traitsIcEERSt13basic_ostreamIcT_ES5_PKc
	mv	s2,a0
	mv	a0,s1
	call	_ZNKSt6bitsetILm8EE8to_ulongEv
	mv	a5,a0
	mv	a1,a5
	mv	a0,s2
	call	_ZNSolsEm
	mv	s2,a0
	addi	a5,s0,-320
	mv	a1,s1
	mv	a0,a5
	call	_ZNKSt6bitsetILm8EE9to_stringB5cxx11Ev
.LEHE10:
	addi	a4,s0,-352
	addi	a5,s0,-320
	mv	a2,a5
	lui	a5,%hi(.LC14)
	addi	a1,a5,%lo(.LC14)
	mv	a0,a4
.LEHB11:
	call	_ZStplIcSt11char_traitsIcESaIcEENSt7__cxx1112basic_stringIT_T0_T1_EEPKS5_OS8_
.LEHE11:
	addi	a4,s0,-384
	addi	a3,s0,-352
	lui	a5,%hi(.LC15)
	addi	a2,a5,%lo(.LC15)
	mv	a1,a3
	mv	a0,a4
.LEHB12:
	call	_ZStplIcSt11char_traitsIcESaIcEENSt7__cxx1112basic_stringIT_T0_T1_EEOS8_PKS5_
.LEHE12:
	addi	a5,s0,-384
	mv	a1,a5
	mv	a0,s2
.LEHB13:
	call	_ZStlsIcSt11char_traitsIcESaIcEERSt13basic_ostreamIT_T0_ES7_RKNSt7__cxx1112basic_stringIS4_S5_T1_EE
	mv	a4,a0
	lui	a5,%hi(_ZSt4endlIcSt11char_traitsIcEERSt13basic_ostreamIT_T0_ES6_)
	addi	a1,a5,%lo(_ZSt4endlIcSt11char_traitsIcEERSt13basic_ostreamIT_T0_ES6_)
	mv	a0,a4
	call	_ZNSolsEPFRSoS_E
.LEHE13:
	addi	a5,s0,-384
	mv	a0,a5
	call	_ZNSt7__cxx1112basic_stringIcSt11char_traitsIcESaIcEED1Ev
	addi	a5,s0,-352
	mv	a0,a5
	call	_ZNSt7__cxx1112basic_stringIcSt11char_traitsIcESaIcEED1Ev
	addi	a5,s0,-320
	mv	a0,a5
	call	_ZNSt7__cxx1112basic_stringIcSt11char_traitsIcESaIcEED1Ev
	ld	a1,-488(s0)
	lui	a5,%hi(_ZSt4cerr)
	addi	a0,a5,%lo(_ZSt4cerr)
.LEHB14:
	call	_ZStlsIcSt11char_traitsIcESaIcEERSt13basic_ostreamIT_T0_ES7_RKNSt7__cxx1112basic_stringIS4_S5_T1_EE
	mv	a4,a0
	lui	a5,%hi(.LC16)
	addi	a1,a5,%lo(.LC16)
	mv	a0,a4
	call	_ZStlsISt11char_traitsIcEERSt13basic_ostreamIcT_ES5_PKc
	mv	s2,a0
	addi	a5,s1,8
	mv	a0,a5
	call	_ZNKSt6bitsetILm24EE8to_ulongEv
	mv	a4,a0
	addi	a5,s0,-288
	mv	a1,a4
	mv	a0,a5
	call	_ZNSt7__cxx119to_stringEm
.LEHE14:
	addi	a5,s0,-288
	mv	a1,a5
	mv	a0,s2
.LEHB15:
	call	_ZStlsIcSt11char_traitsIcESaIcEERSt13basic_ostreamIT_T0_ES7_RKNSt7__cxx1112basic_stringIS4_S5_T1_EE
	mv	s2,a0
	addi	a5,s0,-192
	addi	a4,s1,8
	mv	a1,a4
	mv	a0,a5
	call	_ZNKSt6bitsetILm24EE9to_stringB5cxx11Ev
.LEHE15:
	addi	a4,s0,-224
	addi	a5,s0,-192
	mv	a2,a5
	lui	a5,%hi(.LC14)
	addi	a1,a5,%lo(.LC14)
	mv	a0,a4
.LEHB16:
	call	_ZStplIcSt11char_traitsIcESaIcEENSt7__cxx1112basic_stringIT_T0_T1_EEPKS5_OS8_
.LEHE16:
	addi	a4,s0,-256
	addi	a3,s0,-224
	lui	a5,%hi(.LC15)
	addi	a2,a5,%lo(.LC15)
	mv	a1,a3
	mv	a0,a4
.LEHB17:
	call	_ZStplIcSt11char_traitsIcESaIcEENSt7__cxx1112basic_stringIT_T0_T1_EEOS8_PKS5_
.LEHE17:
	addi	a5,s0,-256
	mv	a1,a5
	mv	a0,s2
.LEHB18:
	call	_ZStlsIcSt11char_traitsIcESaIcEERSt13basic_ostreamIT_T0_ES7_RKNSt7__cxx1112basic_stringIS4_S5_T1_EE
	mv	a4,a0
	lui	a5,%hi(_ZSt4endlIcSt11char_traitsIcEERSt13basic_ostreamIT_T0_ES6_)
	addi	a1,a5,%lo(_ZSt4endlIcSt11char_traitsIcEERSt13basic_ostreamIT_T0_ES6_)
	mv	a0,a4
	call	_ZNSolsEPFRSoS_E
.LEHE18:
	addi	a5,s0,-256
	mv	a0,a5
	call	_ZNSt7__cxx1112basic_stringIcSt11char_traitsIcESaIcEED1Ev
	addi	a5,s0,-224
	mv	a0,a5
	call	_ZNSt7__cxx1112basic_stringIcSt11char_traitsIcESaIcEED1Ev
	addi	a5,s0,-192
	mv	a0,a5
	call	_ZNSt7__cxx1112basic_stringIcSt11char_traitsIcESaIcEED1Ev
	addi	a5,s0,-288
	mv	a0,a5
	call	_ZNSt7__cxx1112basic_stringIcSt11char_traitsIcESaIcEED1Ev
	ld	a1,-488(s0)
	lui	a5,%hi(_ZSt4cerr)
	addi	a0,a5,%lo(_ZSt4cerr)
.LEHB19:
	call	_ZStlsIcSt11char_traitsIcESaIcEERSt13basic_ostreamIT_T0_ES7_RKNSt7__cxx1112basic_stringIS4_S5_T1_EE
	mv	a4,a0
	lui	a5,%hi(.LC17)
	addi	a1,a5,%lo(.LC17)
	mv	a0,a4
	call	_ZStlsISt11char_traitsIcEERSt13basic_ostreamIcT_ES5_PKc
	mv	s2,a0
	addi	a5,s1,16
	mv	a0,a5
	call	_ZNKSt6bitsetILm32EE8to_ulongEv
	mv	a4,a0
	addi	a5,s0,-160
	mv	a1,a4
	mv	a0,a5
	call	_ZNSt7__cxx119to_stringEm
.LEHE19:
	addi	a5,s0,-160
	mv	a1,a5
	mv	a0,s2
.LEHB20:
	call	_ZStlsIcSt11char_traitsIcESaIcEERSt13basic_ostreamIT_T0_ES7_RKNSt7__cxx1112basic_stringIS4_S5_T1_EE
	mv	s2,a0
	addi	a5,s0,-64
	addi	a4,s1,16
	mv	a1,a4
	mv	a0,a5
	call	_ZNKSt6bitsetILm32EE9to_stringB5cxx11Ev
.LEHE20:
	addi	a4,s0,-96
	addi	a5,s0,-64
	mv	a2,a5
	lui	a5,%hi(.LC14)
	addi	a1,a5,%lo(.LC14)
	mv	a0,a4
.LEHB21:
	call	_ZStplIcSt11char_traitsIcESaIcEENSt7__cxx1112basic_stringIT_T0_T1_EEPKS5_OS8_
.LEHE21:
	addi	a4,s0,-128
	addi	a3,s0,-96
	lui	a5,%hi(.LC15)
	addi	a2,a5,%lo(.LC15)
	mv	a1,a3
	mv	a0,a4
.LEHB22:
	call	_ZStplIcSt11char_traitsIcESaIcEENSt7__cxx1112basic_stringIT_T0_T1_EEOS8_PKS5_
.LEHE22:
	addi	a5,s0,-128
	mv	a1,a5
	mv	a0,s2
.LEHB23:
	call	_ZStlsIcSt11char_traitsIcESaIcEERSt13basic_ostreamIT_T0_ES7_RKNSt7__cxx1112basic_stringIS4_S5_T1_EE
	mv	a4,a0
	lui	a5,%hi(_ZSt4endlIcSt11char_traitsIcEERSt13basic_ostreamIT_T0_ES6_)
	addi	a1,a5,%lo(_ZSt4endlIcSt11char_traitsIcEERSt13basic_ostreamIT_T0_ES6_)
	mv	a0,a4
	call	_ZNSolsEPFRSoS_E
.LEHE23:
	addi	a5,s0,-128
	mv	a0,a5
	call	_ZNSt7__cxx1112basic_stringIcSt11char_traitsIcESaIcEED1Ev
	addi	a5,s0,-96
	mv	a0,a5
	call	_ZNSt7__cxx1112basic_stringIcSt11char_traitsIcESaIcEED1Ev
	addi	a5,s0,-64
	mv	a0,a5
	call	_ZNSt7__cxx1112basic_stringIcSt11char_traitsIcESaIcEED1Ev
	addi	a5,s0,-160
	mv	a0,a5
	call	_ZNSt7__cxx1112basic_stringIcSt11char_traitsIcESaIcEED1Ev
	ld	a1,-488(s0)
	lui	a5,%hi(_ZSt4cerr)
	addi	a0,a5,%lo(_ZSt4cerr)
.LEHB24:
	call	_ZStlsIcSt11char_traitsIcESaIcEERSt13basic_ostreamIT_T0_ES7_RKNSt7__cxx1112basic_stringIS4_S5_T1_EE
	mv	a4,a0
	lui	a5,%hi(.LC18)
	addi	a1,a5,%lo(.LC18)
	mv	a0,a4
	call	_ZStlsISt11char_traitsIcEERSt13basic_ostreamIcT_ES5_PKc
.LEHE24:
	li	s1,1
	addi	a5,s0,-456
	mv	a0,a5
	call	_ZNSt7__cxx1112basic_stringIcSt11char_traitsIcESaIcEED1Ev
	mv	a5,s1
	j	.L89
.L75:
	mv	s1,a0
	addi	a5,s0,-424
	mv	a0,a5
	call	_ZNSaIcED1Ev
	mv	a5,s1
	mv	a0,a5
.LEHB25:
	call	_Unwind_Resume
.L77:
	mv	s1,a0
	addi	a5,s0,-416
	mv	a0,a5
	call	_ZNSt7__cxx1112basic_stringIcSt11char_traitsIcESaIcEED1Ev
	j	.L63
.L80:
	mv	s1,a0
	addi	a5,s0,-384
	mv	a0,a5
	call	_ZNSt7__cxx1112basic_stringIcSt11char_traitsIcESaIcEED1Ev
	j	.L65
.L79:
	mv	s1,a0
.L65:
	addi	a5,s0,-352
	mv	a0,a5
	call	_ZNSt7__cxx1112basic_stringIcSt11char_traitsIcESaIcEED1Ev
	j	.L66
.L78:
	mv	s1,a0
.L66:
	addi	a5,s0,-320
	mv	a0,a5
	call	_ZNSt7__cxx1112basic_stringIcSt11char_traitsIcESaIcEED1Ev
	j	.L63
.L84:
	mv	s1,a0
	addi	a5,s0,-256
	mv	a0,a5
	call	_ZNSt7__cxx1112basic_stringIcSt11char_traitsIcESaIcEED1Ev
	j	.L68
.L83:
	mv	s1,a0
.L68:
	addi	a5,s0,-224
	mv	a0,a5
	call	_ZNSt7__cxx1112basic_stringIcSt11char_traitsIcESaIcEED1Ev
	j	.L69
.L82:
	mv	s1,a0
.L69:
	addi	a5,s0,-192
	mv	a0,a5
	call	_ZNSt7__cxx1112basic_stringIcSt11char_traitsIcESaIcEED1Ev
	j	.L70
.L81:
	mv	s1,a0
.L70:
	addi	a5,s0,-288
	mv	a0,a5
	call	_ZNSt7__cxx1112basic_stringIcSt11char_traitsIcESaIcEED1Ev
	j	.L63
.L88:
	mv	s1,a0
	addi	a5,s0,-128
	mv	a0,a5
	call	_ZNSt7__cxx1112basic_stringIcSt11char_traitsIcESaIcEED1Ev
	j	.L72
.L87:
	mv	s1,a0
.L72:
	addi	a5,s0,-96
	mv	a0,a5
	call	_ZNSt7__cxx1112basic_stringIcSt11char_traitsIcESaIcEED1Ev
	j	.L73
.L86:
	mv	s1,a0
.L73:
	addi	a5,s0,-64
	mv	a0,a5
	call	_ZNSt7__cxx1112basic_stringIcSt11char_traitsIcESaIcEED1Ev
	j	.L74
.L85:
	mv	s1,a0
.L74:
	addi	a5,s0,-160
	mv	a0,a5
	call	_ZNSt7__cxx1112basic_stringIcSt11char_traitsIcESaIcEED1Ev
	j	.L63
.L76:
	mv	s1,a0
.L63:
	addi	a5,s0,-456
	mv	a0,a5
	call	_ZNSt7__cxx1112basic_stringIcSt11char_traitsIcESaIcEED1Ev
	mv	a5,s1
	mv	a0,a5
	call	_Unwind_Resume
.LEHE25:
.L89:
	mv	a0,a5
	ld	ra,488(sp)
	.cfi_restore 1
	ld	s0,480(sp)
	.cfi_restore 8
	.cfi_def_cfa 2, 496
	ld	s1,472(sp)
	.cfi_restore 9
	ld	s2,464(sp)
	.cfi_restore 18
	addi	sp,sp,496
	.cfi_def_cfa_offset 0
	jr	ra
	.cfi_endproc
.LFE2764:
	.section	.gcc_except_table
.LLSDA2764:
	.byte	0xff
	.byte	0xff
	.byte	0x3
	.byte	0xf7,0x1
	.4byte	.LEHB7-.LFB2764
	.4byte	.LEHE7-.LEHB7
	.4byte	.L75-.LFB2764
	.byte	0
	.4byte	.LEHB8-.LFB2764
	.4byte	.LEHE8-.LEHB8
	.4byte	.L76-.LFB2764
	.byte	0
	.4byte	.LEHB9-.LFB2764
	.4byte	.LEHE9-.LEHB9
	.4byte	.L77-.LFB2764
	.byte	0
	.4byte	.LEHB10-.LFB2764
	.4byte	.LEHE10-.LEHB10
	.4byte	.L76-.LFB2764
	.byte	0
	.4byte	.LEHB11-.LFB2764
	.4byte	.LEHE11-.LEHB11
	.4byte	.L78-.LFB2764
	.byte	0
	.4byte	.LEHB12-.LFB2764
	.4byte	.LEHE12-.LEHB12
	.4byte	.L79-.LFB2764
	.byte	0
	.4byte	.LEHB13-.LFB2764
	.4byte	.LEHE13-.LEHB13
	.4byte	.L80-.LFB2764
	.byte	0
	.4byte	.LEHB14-.LFB2764
	.4byte	.LEHE14-.LEHB14
	.4byte	.L76-.LFB2764
	.byte	0
	.4byte	.LEHB15-.LFB2764
	.4byte	.LEHE15-.LEHB15
	.4byte	.L81-.LFB2764
	.byte	0
	.4byte	.LEHB16-.LFB2764
	.4byte	.LEHE16-.LEHB16
	.4byte	.L82-.LFB2764
	.byte	0
	.4byte	.LEHB17-.LFB2764
	.4byte	.LEHE17-.LEHB17
	.4byte	.L83-.LFB2764
	.byte	0
	.4byte	.LEHB18-.LFB2764
	.4byte	.LEHE18-.LEHB18
	.4byte	.L84-.LFB2764
	.byte	0
	.4byte	.LEHB19-.LFB2764
	.4byte	.LEHE19-.LEHB19
	.4byte	.L76-.LFB2764
	.byte	0
	.4byte	.LEHB20-.LFB2764
	.4byte	.LEHE20-.LEHB20
	.4byte	.L85-.LFB2764
	.byte	0
	.4byte	.LEHB21-.LFB2764
	.4byte	.LEHE21-.LEHB21
	.4byte	.L86-.LFB2764
	.byte	0
	.4byte	.LEHB22-.LFB2764
	.4byte	.LEHE22-.LEHB22
	.4byte	.L87-.LFB2764
	.byte	0
	.4byte	.LEHB23-.LFB2764
	.4byte	.LEHE23-.LEHB23
	.4byte	.L88-.LFB2764
	.byte	0
	.4byte	.LEHB24-.LFB2764
	.4byte	.LEHE24-.LEHB24
	.4byte	.L76-.LFB2764
	.byte	0
	.4byte	.LEHB25-.LFB2764
	.4byte	.LEHE25-.LEHB25
	.4byte	0
	.byte	0
	.text
	.size	_Z4mpre6TblockNSt7__cxx1112basic_stringIcSt11char_traitsIcESaIcEEEiS5_S5_, .-_Z4mpre6TblockNSt7__cxx1112basic_stringIcSt11char_traitsIcESaIcEEEiS5_S5_
	.section	.rodata
	.align	3
.LC19:
	.string	"\t[addr]=>"
	.text
	.align	1
	.globl	_Z4mpre6TstairNSt7__cxx1112basic_stringIcSt11char_traitsIcESaIcEEEiS5_S5_
	.type	_Z4mpre6TstairNSt7__cxx1112basic_stringIcSt11char_traitsIcESaIcEEEiS5_S5_, @function
_Z4mpre6TstairNSt7__cxx1112basic_stringIcSt11char_traitsIcESaIcEEEiS5_S5_:
.LFB2765:
	.cfi_startproc
	.cfi_personality 0x9b,DW.ref.__gxx_personality_v0
	.cfi_lsda 0x1b,.LLSDA2765
	addi	sp,sp,-496
	.cfi_def_cfa_offset 496
	sd	ra,488(sp)
	sd	s0,480(sp)
	sd	s1,472(sp)
	sd	s2,464(sp)
	.cfi_offset 1, -8
	.cfi_offset 8, -16
	.cfi_offset 9, -24
	.cfi_offset 18, -32
	addi	s0,sp,496
	.cfi_def_cfa 8, 0
	mv	s1,a0
	sd	a1,-472(s0)
	mv	a5,a2
	sd	a3,-488(s0)
	sd	a4,-496(s0)
	sw	a5,-476(s0)
	addi	a5,s0,-424
	mv	a0,a5
	call	_ZNSaIcEC1Ev
	addi	a5,s0,-424
	addi	a4,s0,-456
	mv	a2,a5
	lui	a5,%hi(.LC8)
	addi	a1,a5,%lo(.LC8)
	mv	a0,a4
.LEHB26:
	call	_ZNSt7__cxx1112basic_stringIcSt11char_traitsIcESaIcEEC1EPKcRKS3_
.LEHE26:
	addi	a5,s0,-424
	mv	a0,a5
	call	_ZNSaIcED1Ev
	ld	a1,-488(s0)
	lui	a5,%hi(_ZSt4cerr)
	addi	a0,a5,%lo(_ZSt4cerr)
.LEHB27:
	call	_ZStlsIcSt11char_traitsIcESaIcEERSt13basic_ostreamIT_T0_ES7_RKNSt7__cxx1112basic_stringIS4_S5_T1_EE
	mv	a4,a0
	addi	a5,s0,-456
	mv	a1,a5
	mv	a0,a4
	call	_ZStlsIcSt11char_traitsIcESaIcEERSt13basic_ostreamIT_T0_ES7_RKNSt7__cxx1112basic_stringIS4_S5_T1_EE
	mv	a4,a0
	lui	a5,%hi(.LC9)
	addi	a1,a5,%lo(.LC9)
	mv	a0,a4
	call	_ZStlsISt11char_traitsIcEERSt13basic_ostreamIcT_ES5_PKc
	mv	a4,a0
	lui	a5,%hi(.LC10)
	addi	a1,a5,%lo(.LC10)
	mv	a0,a4
	call	_ZStlsISt11char_traitsIcEERSt13basic_ostreamIcT_ES5_PKc
	mv	s2,a0
	addi	a5,s0,-416
	lw	a4,-476(s0)
	mv	a1,a4
	mv	a0,a5
	call	_ZNSt7__cxx119to_stringEi
.LEHE27:
	addi	a5,s0,-416
	mv	a1,a5
	mv	a0,s2
.LEHB28:
	call	_ZStlsIcSt11char_traitsIcESaIcEERSt13basic_ostreamIT_T0_ES7_RKNSt7__cxx1112basic_stringIS4_S5_T1_EE
	mv	a4,a0
	lui	a5,%hi(.LC11)
	addi	a1,a5,%lo(.LC11)
	mv	a0,a4
	call	_ZStlsISt11char_traitsIcEERSt13basic_ostreamIcT_ES5_PKc
	mv	a5,a0
	ld	a1,-472(s0)
	mv	a0,a5
	call	_ZStlsIcSt11char_traitsIcESaIcEERSt13basic_ostreamIT_T0_ES7_RKNSt7__cxx1112basic_stringIS4_S5_T1_EE
	mv	a4,a0
	lui	a5,%hi(.LC12)
	addi	a1,a5,%lo(.LC12)
	mv	a0,a4
	call	_ZStlsISt11char_traitsIcEERSt13basic_ostreamIcT_ES5_PKc
.LEHE28:
	addi	a5,s0,-416
	mv	a0,a5
	call	_ZNSt7__cxx1112basic_stringIcSt11char_traitsIcESaIcEED1Ev
	ld	a1,-488(s0)
	lui	a5,%hi(_ZSt4cerr)
	addi	a0,a5,%lo(_ZSt4cerr)
.LEHB29:
	call	_ZStlsIcSt11char_traitsIcESaIcEERSt13basic_ostreamIT_T0_ES7_RKNSt7__cxx1112basic_stringIS4_S5_T1_EE
	mv	a4,a0
	lui	a5,%hi(.LC13)
	addi	a1,a5,%lo(.LC13)
	mv	a0,a4
	call	_ZStlsISt11char_traitsIcEERSt13basic_ostreamIcT_ES5_PKc
	mv	s2,a0
	mv	a0,s1
	call	_ZNKSt6bitsetILm8EE8to_ulongEv
	mv	a5,a0
	mv	a1,a5
	mv	a0,s2
	call	_ZNSolsEm
	mv	s2,a0
	addi	a5,s0,-320
	mv	a1,s1
	mv	a0,a5
	call	_ZNKSt6bitsetILm8EE9to_stringB5cxx11Ev
.LEHE29:
	addi	a4,s0,-352
	addi	a5,s0,-320
	mv	a2,a5
	lui	a5,%hi(.LC14)
	addi	a1,a5,%lo(.LC14)
	mv	a0,a4
.LEHB30:
	call	_ZStplIcSt11char_traitsIcESaIcEENSt7__cxx1112basic_stringIT_T0_T1_EEPKS5_OS8_
.LEHE30:
	addi	a4,s0,-384
	addi	a3,s0,-352
	lui	a5,%hi(.LC15)
	addi	a2,a5,%lo(.LC15)
	mv	a1,a3
	mv	a0,a4
.LEHB31:
	call	_ZStplIcSt11char_traitsIcESaIcEENSt7__cxx1112basic_stringIT_T0_T1_EEOS8_PKS5_
.LEHE31:
	addi	a5,s0,-384
	mv	a1,a5
	mv	a0,s2
.LEHB32:
	call	_ZStlsIcSt11char_traitsIcESaIcEERSt13basic_ostreamIT_T0_ES7_RKNSt7__cxx1112basic_stringIS4_S5_T1_EE
	mv	a4,a0
	lui	a5,%hi(_ZSt4endlIcSt11char_traitsIcEERSt13basic_ostreamIT_T0_ES6_)
	addi	a1,a5,%lo(_ZSt4endlIcSt11char_traitsIcEERSt13basic_ostreamIT_T0_ES6_)
	mv	a0,a4
	call	_ZNSolsEPFRSoS_E
.LEHE32:
	addi	a5,s0,-384
	mv	a0,a5
	call	_ZNSt7__cxx1112basic_stringIcSt11char_traitsIcESaIcEED1Ev
	addi	a5,s0,-352
	mv	a0,a5
	call	_ZNSt7__cxx1112basic_stringIcSt11char_traitsIcESaIcEED1Ev
	addi	a5,s0,-320
	mv	a0,a5
	call	_ZNSt7__cxx1112basic_stringIcSt11char_traitsIcESaIcEED1Ev
	ld	a1,-488(s0)
	lui	a5,%hi(_ZSt4cerr)
	addi	a0,a5,%lo(_ZSt4cerr)
.LEHB33:
	call	_ZStlsIcSt11char_traitsIcESaIcEERSt13basic_ostreamIT_T0_ES7_RKNSt7__cxx1112basic_stringIS4_S5_T1_EE
	mv	a4,a0
	lui	a5,%hi(.LC19)
	addi	a1,a5,%lo(.LC19)
	mv	a0,a4
	call	_ZStlsISt11char_traitsIcEERSt13basic_ostreamIcT_ES5_PKc
	mv	s2,a0
	addi	a5,s1,8
	mv	a0,a5
	call	_ZNKSt6bitsetILm8EE8to_ulongEv
	mv	a4,a0
	addi	a5,s0,-288
	mv	a1,a4
	mv	a0,a5
	call	_ZNSt7__cxx119to_stringEm
.LEHE33:
	addi	a5,s0,-288
	mv	a1,a5
	mv	a0,s2
.LEHB34:
	call	_ZStlsIcSt11char_traitsIcESaIcEERSt13basic_ostreamIT_T0_ES7_RKNSt7__cxx1112basic_stringIS4_S5_T1_EE
	mv	s2,a0
	addi	a5,s0,-192
	addi	a4,s1,8
	mv	a1,a4
	mv	a0,a5
	call	_ZNKSt6bitsetILm8EE9to_stringB5cxx11Ev
.LEHE34:
	addi	a4,s0,-224
	addi	a5,s0,-192
	mv	a2,a5
	lui	a5,%hi(.LC14)
	addi	a1,a5,%lo(.LC14)
	mv	a0,a4
.LEHB35:
	call	_ZStplIcSt11char_traitsIcESaIcEENSt7__cxx1112basic_stringIT_T0_T1_EEPKS5_OS8_
.LEHE35:
	addi	a4,s0,-256
	addi	a3,s0,-224
	lui	a5,%hi(.LC15)
	addi	a2,a5,%lo(.LC15)
	mv	a1,a3
	mv	a0,a4
.LEHB36:
	call	_ZStplIcSt11char_traitsIcESaIcEENSt7__cxx1112basic_stringIT_T0_T1_EEOS8_PKS5_
.LEHE36:
	addi	a5,s0,-256
	mv	a1,a5
	mv	a0,s2
.LEHB37:
	call	_ZStlsIcSt11char_traitsIcESaIcEERSt13basic_ostreamIT_T0_ES7_RKNSt7__cxx1112basic_stringIS4_S5_T1_EE
	mv	a4,a0
	lui	a5,%hi(_ZSt4endlIcSt11char_traitsIcEERSt13basic_ostreamIT_T0_ES6_)
	addi	a1,a5,%lo(_ZSt4endlIcSt11char_traitsIcEERSt13basic_ostreamIT_T0_ES6_)
	mv	a0,a4
	call	_ZNSolsEPFRSoS_E
.LEHE37:
	addi	a5,s0,-256
	mv	a0,a5
	call	_ZNSt7__cxx1112basic_stringIcSt11char_traitsIcESaIcEED1Ev
	addi	a5,s0,-224
	mv	a0,a5
	call	_ZNSt7__cxx1112basic_stringIcSt11char_traitsIcESaIcEED1Ev
	addi	a5,s0,-192
	mv	a0,a5
	call	_ZNSt7__cxx1112basic_stringIcSt11char_traitsIcESaIcEED1Ev
	addi	a5,s0,-288
	mv	a0,a5
	call	_ZNSt7__cxx1112basic_stringIcSt11char_traitsIcESaIcEED1Ev
	ld	a1,-488(s0)
	lui	a5,%hi(_ZSt4cerr)
	addi	a0,a5,%lo(_ZSt4cerr)
.LEHB38:
	call	_ZStlsIcSt11char_traitsIcESaIcEERSt13basic_ostreamIT_T0_ES7_RKNSt7__cxx1112basic_stringIS4_S5_T1_EE
	mv	a4,a0
	lui	a5,%hi(.LC17)
	addi	a1,a5,%lo(.LC17)
	mv	a0,a4
	call	_ZStlsISt11char_traitsIcEERSt13basic_ostreamIcT_ES5_PKc
	mv	s2,a0
	addi	a5,s1,16
	mv	a0,a5
	call	_ZNKSt6bitsetILm32EE8to_ulongEv
	mv	a4,a0
	addi	a5,s0,-160
	mv	a1,a4
	mv	a0,a5
	call	_ZNSt7__cxx119to_stringEm
.LEHE38:
	addi	a5,s0,-160
	mv	a1,a5
	mv	a0,s2
.LEHB39:
	call	_ZStlsIcSt11char_traitsIcESaIcEERSt13basic_ostreamIT_T0_ES7_RKNSt7__cxx1112basic_stringIS4_S5_T1_EE
	mv	s2,a0
	addi	a5,s0,-64
	addi	a4,s1,16
	mv	a1,a4
	mv	a0,a5
	call	_ZNKSt6bitsetILm32EE9to_stringB5cxx11Ev
.LEHE39:
	addi	a4,s0,-96
	addi	a5,s0,-64
	mv	a2,a5
	lui	a5,%hi(.LC14)
	addi	a1,a5,%lo(.LC14)
	mv	a0,a4
.LEHB40:
	call	_ZStplIcSt11char_traitsIcESaIcEENSt7__cxx1112basic_stringIT_T0_T1_EEPKS5_OS8_
.LEHE40:
	addi	a4,s0,-128
	addi	a3,s0,-96
	lui	a5,%hi(.LC15)
	addi	a2,a5,%lo(.LC15)
	mv	a1,a3
	mv	a0,a4
.LEHB41:
	call	_ZStplIcSt11char_traitsIcESaIcEENSt7__cxx1112basic_stringIT_T0_T1_EEOS8_PKS5_
.LEHE41:
	addi	a5,s0,-128
	mv	a1,a5
	mv	a0,s2
.LEHB42:
	call	_ZStlsIcSt11char_traitsIcESaIcEERSt13basic_ostreamIT_T0_ES7_RKNSt7__cxx1112basic_stringIS4_S5_T1_EE
	mv	a4,a0
	lui	a5,%hi(_ZSt4endlIcSt11char_traitsIcEERSt13basic_ostreamIT_T0_ES6_)
	addi	a1,a5,%lo(_ZSt4endlIcSt11char_traitsIcEERSt13basic_ostreamIT_T0_ES6_)
	mv	a0,a4
	call	_ZNSolsEPFRSoS_E
.LEHE42:
	addi	a5,s0,-128
	mv	a0,a5
	call	_ZNSt7__cxx1112basic_stringIcSt11char_traitsIcESaIcEED1Ev
	addi	a5,s0,-96
	mv	a0,a5
	call	_ZNSt7__cxx1112basic_stringIcSt11char_traitsIcESaIcEED1Ev
	addi	a5,s0,-64
	mv	a0,a5
	call	_ZNSt7__cxx1112basic_stringIcSt11char_traitsIcESaIcEED1Ev
	addi	a5,s0,-160
	mv	a0,a5
	call	_ZNSt7__cxx1112basic_stringIcSt11char_traitsIcESaIcEED1Ev
	ld	a1,-488(s0)
	lui	a5,%hi(_ZSt4cerr)
	addi	a0,a5,%lo(_ZSt4cerr)
.LEHB43:
	call	_ZStlsIcSt11char_traitsIcESaIcEERSt13basic_ostreamIT_T0_ES7_RKNSt7__cxx1112basic_stringIS4_S5_T1_EE
	mv	a4,a0
	lui	a5,%hi(.LC18)
	addi	a1,a5,%lo(.LC18)
	mv	a0,a4
	call	_ZStlsISt11char_traitsIcEERSt13basic_ostreamIcT_ES5_PKc
.LEHE43:
	li	s1,1
	addi	a5,s0,-456
	mv	a0,a5
	call	_ZNSt7__cxx1112basic_stringIcSt11char_traitsIcESaIcEED1Ev
	mv	a5,s1
	j	.L120
.L106:
	mv	s1,a0
	addi	a5,s0,-424
	mv	a0,a5
	call	_ZNSaIcED1Ev
	mv	a5,s1
	mv	a0,a5
.LEHB44:
	call	_Unwind_Resume
.L108:
	mv	s1,a0
	addi	a5,s0,-416
	mv	a0,a5
	call	_ZNSt7__cxx1112basic_stringIcSt11char_traitsIcESaIcEED1Ev
	j	.L94
.L111:
	mv	s1,a0
	addi	a5,s0,-384
	mv	a0,a5
	call	_ZNSt7__cxx1112basic_stringIcSt11char_traitsIcESaIcEED1Ev
	j	.L96
.L110:
	mv	s1,a0
.L96:
	addi	a5,s0,-352
	mv	a0,a5
	call	_ZNSt7__cxx1112basic_stringIcSt11char_traitsIcESaIcEED1Ev
	j	.L97
.L109:
	mv	s1,a0
.L97:
	addi	a5,s0,-320
	mv	a0,a5
	call	_ZNSt7__cxx1112basic_stringIcSt11char_traitsIcESaIcEED1Ev
	j	.L94
.L115:
	mv	s1,a0
	addi	a5,s0,-256
	mv	a0,a5
	call	_ZNSt7__cxx1112basic_stringIcSt11char_traitsIcESaIcEED1Ev
	j	.L99
.L114:
	mv	s1,a0
.L99:
	addi	a5,s0,-224
	mv	a0,a5
	call	_ZNSt7__cxx1112basic_stringIcSt11char_traitsIcESaIcEED1Ev
	j	.L100
.L113:
	mv	s1,a0
.L100:
	addi	a5,s0,-192
	mv	a0,a5
	call	_ZNSt7__cxx1112basic_stringIcSt11char_traitsIcESaIcEED1Ev
	j	.L101
.L112:
	mv	s1,a0
.L101:
	addi	a5,s0,-288
	mv	a0,a5
	call	_ZNSt7__cxx1112basic_stringIcSt11char_traitsIcESaIcEED1Ev
	j	.L94
.L119:
	mv	s1,a0
	addi	a5,s0,-128
	mv	a0,a5
	call	_ZNSt7__cxx1112basic_stringIcSt11char_traitsIcESaIcEED1Ev
	j	.L103
.L118:
	mv	s1,a0
.L103:
	addi	a5,s0,-96
	mv	a0,a5
	call	_ZNSt7__cxx1112basic_stringIcSt11char_traitsIcESaIcEED1Ev
	j	.L104
.L117:
	mv	s1,a0
.L104:
	addi	a5,s0,-64
	mv	a0,a5
	call	_ZNSt7__cxx1112basic_stringIcSt11char_traitsIcESaIcEED1Ev
	j	.L105
.L116:
	mv	s1,a0
.L105:
	addi	a5,s0,-160
	mv	a0,a5
	call	_ZNSt7__cxx1112basic_stringIcSt11char_traitsIcESaIcEED1Ev
	j	.L94
.L107:
	mv	s1,a0
.L94:
	addi	a5,s0,-456
	mv	a0,a5
	call	_ZNSt7__cxx1112basic_stringIcSt11char_traitsIcESaIcEED1Ev
	mv	a5,s1
	mv	a0,a5
	call	_Unwind_Resume
.LEHE44:
.L120:
	mv	a0,a5
	ld	ra,488(sp)
	.cfi_restore 1
	ld	s0,480(sp)
	.cfi_restore 8
	.cfi_def_cfa 2, 496
	ld	s1,472(sp)
	.cfi_restore 9
	ld	s2,464(sp)
	.cfi_restore 18
	addi	sp,sp,496
	.cfi_def_cfa_offset 0
	jr	ra
	.cfi_endproc
.LFE2765:
	.section	.gcc_except_table
.LLSDA2765:
	.byte	0xff
	.byte	0xff
	.byte	0x3
	.byte	0xf7,0x1
	.4byte	.LEHB26-.LFB2765
	.4byte	.LEHE26-.LEHB26
	.4byte	.L106-.LFB2765
	.byte	0
	.4byte	.LEHB27-.LFB2765
	.4byte	.LEHE27-.LEHB27
	.4byte	.L107-.LFB2765
	.byte	0
	.4byte	.LEHB28-.LFB2765
	.4byte	.LEHE28-.LEHB28
	.4byte	.L108-.LFB2765
	.byte	0
	.4byte	.LEHB29-.LFB2765
	.4byte	.LEHE29-.LEHB29
	.4byte	.L107-.LFB2765
	.byte	0
	.4byte	.LEHB30-.LFB2765
	.4byte	.LEHE30-.LEHB30
	.4byte	.L109-.LFB2765
	.byte	0
	.4byte	.LEHB31-.LFB2765
	.4byte	.LEHE31-.LEHB31
	.4byte	.L110-.LFB2765
	.byte	0
	.4byte	.LEHB32-.LFB2765
	.4byte	.LEHE32-.LEHB32
	.4byte	.L111-.LFB2765
	.byte	0
	.4byte	.LEHB33-.LFB2765
	.4byte	.LEHE33-.LEHB33
	.4byte	.L107-.LFB2765
	.byte	0
	.4byte	.LEHB34-.LFB2765
	.4byte	.LEHE34-.LEHB34
	.4byte	.L112-.LFB2765
	.byte	0
	.4byte	.LEHB35-.LFB2765
	.4byte	.LEHE35-.LEHB35
	.4byte	.L113-.LFB2765
	.byte	0
	.4byte	.LEHB36-.LFB2765
	.4byte	.LEHE36-.LEHB36
	.4byte	.L114-.LFB2765
	.byte	0
	.4byte	.LEHB37-.LFB2765
	.4byte	.LEHE37-.LEHB37
	.4byte	.L115-.LFB2765
	.byte	0
	.4byte	.LEHB38-.LFB2765
	.4byte	.LEHE38-.LEHB38
	.4byte	.L107-.LFB2765
	.byte	0
	.4byte	.LEHB39-.LFB2765
	.4byte	.LEHE39-.LEHB39
	.4byte	.L116-.LFB2765
	.byte	0
	.4byte	.LEHB40-.LFB2765
	.4byte	.LEHE40-.LEHB40
	.4byte	.L117-.LFB2765
	.byte	0
	.4byte	.LEHB41-.LFB2765
	.4byte	.LEHE41-.LEHB41
	.4byte	.L118-.LFB2765
	.byte	0
	.4byte	.LEHB42-.LFB2765
	.4byte	.LEHE42-.LEHB42
	.4byte	.L119-.LFB2765
	.byte	0
	.4byte	.LEHB43-.LFB2765
	.4byte	.LEHE43-.LEHB43
	.4byte	.L107-.LFB2765
	.byte	0
	.4byte	.LEHB44-.LFB2765
	.4byte	.LEHE44-.LEHB44
	.4byte	0
	.byte	0
	.text
	.size	_Z4mpre6TstairNSt7__cxx1112basic_stringIcSt11char_traitsIcESaIcEEEiS5_S5_, .-_Z4mpre6TstairNSt7__cxx1112basic_stringIcSt11char_traitsIcESaIcEEEiS5_S5_
	.section	.rodata
	.align	3
.LC20:
	.string	"id"
	.text
	.align	1
	.type	_ZZ4mpreSt3mapINSt7__cxx1112basic_stringIcSt11char_traitsIcESaIcEEES5_St4lessIS5_ESaISt4pairIKS5_S5_EEEPciS5_S5_ENKUlvE_clEv, @function
_ZZ4mpreSt3mapINSt7__cxx1112basic_stringIcSt11char_traitsIcESaIcEEES5_St4lessIS5_ESaISt4pairIKS5_S5_EEEPciS5_S5_ENKUlvE_clEv:
.LFB2767:
	.cfi_startproc
	.cfi_personality 0x9b,DW.ref.__gxx_personality_v0
	.cfi_lsda 0x1b,.LLSDA2767
	addi	sp,sp,-144
	.cfi_def_cfa_offset 144
	sd	ra,136(sp)
	sd	s0,128(sp)
	sd	s1,120(sp)
	sd	s2,112(sp)
	.cfi_offset 1, -8
	.cfi_offset 8, -16
	.cfi_offset 9, -24
	.cfi_offset 18, -32
	addi	s0,sp,144
	.cfi_def_cfa 8, 0
	sd	a0,-136(s0)
	ld	a5,-136(s0)
	ld	a5,0(a5)
	mv	a1,a5
	lui	a5,%hi(.LC8)
	addi	a0,a5,%lo(.LC8)
.LEHB45:
	call	_ZStneIcSt11char_traitsIcESaIcEEbPKT_RKNSt7__cxx1112basic_stringIS3_T0_T1_EE
	mv	a5,a0
	beq	a5,zero,.L122
	ld	a5,-136(s0)
	ld	a4,8(a5)
	ld	a5,-136(s0)
	ld	a5,0(a5)
	mv	a1,a5
	mv	a0,a4
	call	_ZNSt7__cxx1112basic_stringIcSt11char_traitsIcESaIcEEaSERKS4_
.LEHE45:
	j	.L123
.L122:
	ld	a5,-136(s0)
	ld	a5,16(a5)
	mv	a0,a5
	call	_ZNSt3mapINSt7__cxx1112basic_stringIcSt11char_traitsIcESaIcEEES5_St4lessIS5_ESaISt4pairIKS5_S5_EEE3endEv
	mv	a5,a0
	sd	a5,-128(s0)
	ld	a5,-136(s0)
	ld	s1,16(a5)
	addi	a5,s0,-80
	mv	a0,a5
	call	_ZNSaIcEC1Ev
	addi	a5,s0,-80
	addi	a4,s0,-112
	mv	a2,a5
	lui	a5,%hi(.LC20)
	addi	a1,a5,%lo(.LC20)
	mv	a0,a4
.LEHB46:
	call	_ZNSt7__cxx1112basic_stringIcSt11char_traitsIcESaIcEEC1EPKcRKS3_
.LEHE46:
	addi	a5,s0,-112
	mv	a1,a5
	mv	a0,s1
.LEHB47:
	call	_ZNSt3mapINSt7__cxx1112basic_stringIcSt11char_traitsIcESaIcEEES5_St4lessIS5_ESaISt4pairIKS5_S5_EEE4findERS9_
.LEHE47:
	mv	a5,a0
	sd	a5,-120(s0)
	addi	a4,s0,-120
	addi	a5,s0,-128
	mv	a1,a4
	mv	a0,a5
	call	_ZStneRKSt17_Rb_tree_iteratorISt4pairIKNSt7__cxx1112basic_stringIcSt11char_traitsIcESaIcEEES6_EESB_
	mv	a5,a0
	mv	s1,a5
	addi	a5,s0,-112
	mv	a0,a5
	call	_ZNSt7__cxx1112basic_stringIcSt11char_traitsIcESaIcEED1Ev
	addi	a5,s0,-80
	mv	a0,a5
	call	_ZNSaIcED1Ev
	beq	s1,zero,.L123
	ld	a5,-136(s0)
	ld	s1,8(a5)
	ld	a5,-136(s0)
	ld	s2,16(a5)
	addi	a5,s0,-40
	mv	a0,a5
	call	_ZNSaIcEC1Ev
	addi	a5,s0,-40
	addi	a4,s0,-72
	mv	a2,a5
	lui	a5,%hi(.LC20)
	addi	a1,a5,%lo(.LC20)
	mv	a0,a4
.LEHB48:
	call	_ZNSt7__cxx1112basic_stringIcSt11char_traitsIcESaIcEEC1EPKcRKS3_
.LEHE48:
	addi	a5,s0,-72
	mv	a1,a5
	mv	a0,s2
.LEHB49:
	call	_ZNSt3mapINSt7__cxx1112basic_stringIcSt11char_traitsIcESaIcEEES5_St4lessIS5_ESaISt4pairIKS5_S5_EEEixEOS5_
	mv	a5,a0
	mv	a1,a5
	mv	a0,s1
	call	_ZNSt7__cxx1112basic_stringIcSt11char_traitsIcESaIcEEaSERKS4_
.LEHE49:
	addi	a5,s0,-72
	mv	a0,a5
	call	_ZNSt7__cxx1112basic_stringIcSt11char_traitsIcESaIcEED1Ev
	addi	a5,s0,-40
	mv	a0,a5
	call	_ZNSaIcED1Ev
.L123:
	li	a5,0
	j	.L133
.L130:
	mv	s1,a0
	addi	a5,s0,-112
	mv	a0,a5
	call	_ZNSt7__cxx1112basic_stringIcSt11char_traitsIcESaIcEED1Ev
	j	.L126
.L129:
	mv	s1,a0
.L126:
	addi	a5,s0,-80
	mv	a0,a5
	call	_ZNSaIcED1Ev
	mv	a5,s1
	mv	a0,a5
.LEHB50:
	call	_Unwind_Resume
.L132:
	mv	s1,a0
	addi	a5,s0,-72
	mv	a0,a5
	call	_ZNSt7__cxx1112basic_stringIcSt11char_traitsIcESaIcEED1Ev
	j	.L128
.L131:
	mv	s1,a0
.L128:
	addi	a5,s0,-40
	mv	a0,a5
	call	_ZNSaIcED1Ev
	mv	a5,s1
	mv	a0,a5
	call	_Unwind_Resume
.LEHE50:
.L133:
	mv	a0,a5
	ld	ra,136(sp)
	.cfi_restore 1
	ld	s0,128(sp)
	.cfi_restore 8
	.cfi_def_cfa 2, 144
	ld	s1,120(sp)
	.cfi_restore 9
	ld	s2,112(sp)
	.cfi_restore 18
	addi	sp,sp,144
	.cfi_def_cfa_offset 0
	jr	ra
	.cfi_endproc
.LFE2767:
	.section	.gcc_except_table
.LLSDA2767:
	.byte	0xff
	.byte	0xff
	.byte	0x3
	.byte	0x4e
	.4byte	.LEHB45-.LFB2767
	.4byte	.LEHE45-.LEHB45
	.4byte	0
	.byte	0
	.4byte	.LEHB46-.LFB2767
	.4byte	.LEHE46-.LEHB46
	.4byte	.L129-.LFB2767
	.byte	0
	.4byte	.LEHB47-.LFB2767
	.4byte	.LEHE47-.LEHB47
	.4byte	.L130-.LFB2767
	.byte	0
	.4byte	.LEHB48-.LFB2767
	.4byte	.LEHE48-.LEHB48
	.4byte	.L131-.LFB2767
	.byte	0
	.4byte	.LEHB49-.LFB2767
	.4byte	.LEHE49-.LEHB49
	.4byte	.L132-.LFB2767
	.byte	0
	.4byte	.LEHB50-.LFB2767
	.4byte	.LEHE50-.LEHB50
	.4byte	0
	.byte	0
	.text
	.size	_ZZ4mpreSt3mapINSt7__cxx1112basic_stringIcSt11char_traitsIcESaIcEEES5_St4lessIS5_ESaISt4pairIKS5_S5_EEEPciS5_S5_ENKUlvE_clEv, .-_ZZ4mpreSt3mapINSt7__cxx1112basic_stringIcSt11char_traitsIcESaIcEEES5_St4lessIS5_ESaISt4pairIKS5_S5_EEEPciS5_S5_ENKUlvE_clEv
	.section	.rodata
	.align	3
.LC21:
	.string	"\t["
	.align	3
.LC22:
	.string	"]=>"
	.align	3
.LC23:
	.string	","
	.text
	.align	1
	.globl	_Z4mpreSt3mapINSt7__cxx1112basic_stringIcSt11char_traitsIcESaIcEEES5_St4lessIS5_ESaISt4pairIKS5_S5_EEEPciS5_S5_
	.type	_Z4mpreSt3mapINSt7__cxx1112basic_stringIcSt11char_traitsIcESaIcEEES5_St4lessIS5_ESaISt4pairIKS5_S5_EEEPciS5_S5_, @function
_Z4mpreSt3mapINSt7__cxx1112basic_stringIcSt11char_traitsIcESaIcEEES5_St4lessIS5_ESaISt4pairIKS5_S5_EEEPciS5_S5_:
.LFB2766:
	.cfi_startproc
	.cfi_personality 0x9b,DW.ref.__gxx_personality_v0
	.cfi_lsda 0x1b,.LLSDA2766
	addi	sp,sp,-256
	.cfi_def_cfa_offset 256
	sd	ra,248(sp)
	sd	s0,240(sp)
	sd	s1,232(sp)
	.cfi_offset 1, -8
	.cfi_offset 8, -16
	.cfi_offset 9, -24
	addi	s0,sp,256
	.cfi_def_cfa 8, 0
	sd	a0,-216(s0)
	sd	a1,-224(s0)
	mv	a5,a2
	sd	a3,-240(s0)
	sd	a4,-248(s0)
	sw	a5,-228(s0)
	addi	a5,s0,-128
	mv	a0,a5
	call	_ZNSt7__cxx1112basic_stringIcSt11char_traitsIcESaIcEEC1Ev
	ld	a5,-248(s0)
	sd	a5,-96(s0)
	addi	a5,s0,-128
	sd	a5,-88(s0)
	ld	a5,-216(s0)
	sd	a5,-80(s0)
	addi	a5,s0,-96
	mv	a0,a5
.LEHB51:
	call	_ZZ4mpreSt3mapINSt7__cxx1112basic_stringIcSt11char_traitsIcESaIcEEES5_St4lessIS5_ESaISt4pairIKS5_S5_EEEPciS5_S5_ENKUlvE_clEv
	mv	a5,a0
	bne	a5,zero,.L135
	ld	a1,-240(s0)
	lui	a5,%hi(_ZSt4cerr)
	addi	a0,a5,%lo(_ZSt4cerr)
	call	_ZStlsIcSt11char_traitsIcESaIcEERSt13basic_ostreamIT_T0_ES7_RKNSt7__cxx1112basic_stringIS4_S5_T1_EE
	mv	a4,a0
	addi	a5,s0,-128
	mv	a1,a5
	mv	a0,a4
	call	_ZStlsIcSt11char_traitsIcESaIcEERSt13basic_ostreamIT_T0_ES7_RKNSt7__cxx1112basic_stringIS4_S5_T1_EE
	mv	a4,a0
	lui	a5,%hi(.LC9)
	addi	a1,a5,%lo(.LC9)
	mv	a0,a4
	call	_ZStlsISt11char_traitsIcEERSt13basic_ostreamIcT_ES5_PKc
	mv	a4,a0
	lui	a5,%hi(.LC10)
	addi	a1,a5,%lo(.LC10)
	mv	a0,a4
	call	_ZStlsISt11char_traitsIcEERSt13basic_ostreamIcT_ES5_PKc
	mv	s1,a0
	addi	a5,s0,-72
	lw	a4,-228(s0)
	mv	a1,a4
	mv	a0,a5
	call	_ZNSt7__cxx119to_stringEi
.LEHE51:
	addi	a5,s0,-72
	mv	a1,a5
	mv	a0,s1
.LEHB52:
	call	_ZStlsIcSt11char_traitsIcESaIcEERSt13basic_ostreamIT_T0_ES7_RKNSt7__cxx1112basic_stringIS4_S5_T1_EE
	mv	a4,a0
	lui	a5,%hi(.LC11)
	addi	a1,a5,%lo(.LC11)
	mv	a0,a4
	call	_ZStlsISt11char_traitsIcEERSt13basic_ostreamIcT_ES5_PKc
	mv	a5,a0
	ld	a1,-224(s0)
	mv	a0,a5
	call	_ZStlsISt11char_traitsIcEERSt13basic_ostreamIcT_ES5_PKc
	mv	a4,a0
	lui	a5,%hi(.LC12)
	addi	a1,a5,%lo(.LC12)
	mv	a0,a4
	call	_ZStlsISt11char_traitsIcEERSt13basic_ostreamIcT_ES5_PKc
.LEHE52:
	addi	a5,s0,-72
	mv	a0,a5
	call	_ZNSt7__cxx1112basic_stringIcSt11char_traitsIcESaIcEED1Ev
	ld	a0,-216(s0)
	call	_ZNSt3mapINSt7__cxx1112basic_stringIcSt11char_traitsIcESaIcEEES5_St4lessIS5_ESaISt4pairIKS5_S5_EEE5beginEv
	mv	a5,a0
	sd	a5,-136(s0)
.L137:
	ld	a0,-216(s0)
	call	_ZNSt3mapINSt7__cxx1112basic_stringIcSt11char_traitsIcESaIcEEES5_St4lessIS5_ESaISt4pairIKS5_S5_EEE3endEv
	mv	a5,a0
	sd	a5,-40(s0)
	addi	a4,s0,-40
	addi	a5,s0,-136
	mv	a1,a4
	mv	a0,a5
	call	_ZStneRKSt17_Rb_tree_iteratorISt4pairIKNSt7__cxx1112basic_stringIcSt11char_traitsIcESaIcEEES6_EESB_
	mv	a5,a0
	beq	a5,zero,.L136
	addi	a5,s0,-136
	mv	a0,a5
	call	_ZNKSt17_Rb_tree_iteratorISt4pairIKNSt7__cxx1112basic_stringIcSt11char_traitsIcESaIcEEES6_EEptEv
	mv	a5,a0
	mv	a4,a5
	addi	a5,s0,-200
	mv	a1,a4
	mv	a0,a5
.LEHB53:
	call	_ZNSt7__cxx1112basic_stringIcSt11char_traitsIcESaIcEEC1ERKS4_
.LEHE53:
	addi	a5,s0,-136
	mv	a0,a5
	call	_ZNKSt17_Rb_tree_iteratorISt4pairIKNSt7__cxx1112basic_stringIcSt11char_traitsIcESaIcEEES6_EEptEv
	mv	a5,a0
	addi	a4,a5,32
	addi	a5,s0,-168
	mv	a1,a4
	mv	a0,a5
.LEHB54:
	call	_ZNSt7__cxx1112basic_stringIcSt11char_traitsIcESaIcEEC1ERKS4_
.LEHE54:
	ld	a1,-240(s0)
	lui	a5,%hi(_ZSt4cerr)
	addi	a0,a5,%lo(_ZSt4cerr)
.LEHB55:
	call	_ZStlsIcSt11char_traitsIcESaIcEERSt13basic_ostreamIT_T0_ES7_RKNSt7__cxx1112basic_stringIS4_S5_T1_EE
	mv	a4,a0
	lui	a5,%hi(.LC21)
	addi	a1,a5,%lo(.LC21)
	mv	a0,a4
	call	_ZStlsISt11char_traitsIcEERSt13basic_ostreamIcT_ES5_PKc
	mv	a4,a0
	addi	a5,s0,-200
	mv	a1,a5
	mv	a0,a4
	call	_ZStlsIcSt11char_traitsIcESaIcEERSt13basic_ostreamIT_T0_ES7_RKNSt7__cxx1112basic_stringIS4_S5_T1_EE
	mv	a4,a0
	lui	a5,%hi(.LC22)
	addi	a1,a5,%lo(.LC22)
	mv	a0,a4
	call	_ZStlsISt11char_traitsIcEERSt13basic_ostreamIcT_ES5_PKc
	mv	a4,a0
	addi	a5,s0,-168
	mv	a1,a5
	mv	a0,a4
	call	_ZStlsIcSt11char_traitsIcESaIcEERSt13basic_ostreamIT_T0_ES7_RKNSt7__cxx1112basic_stringIS4_S5_T1_EE
	mv	a4,a0
	lui	a5,%hi(.LC23)
	addi	a1,a5,%lo(.LC23)
	mv	a0,a4
	call	_ZStlsISt11char_traitsIcEERSt13basic_ostreamIcT_ES5_PKc
	mv	a4,a0
	lui	a5,%hi(_ZSt4endlIcSt11char_traitsIcEERSt13basic_ostreamIT_T0_ES6_)
	addi	a1,a5,%lo(_ZSt4endlIcSt11char_traitsIcEERSt13basic_ostreamIT_T0_ES6_)
	mv	a0,a4
	call	_ZNSolsEPFRSoS_E
.LEHE55:
	addi	a5,s0,-168
	mv	a0,a5
	call	_ZNSt7__cxx1112basic_stringIcSt11char_traitsIcESaIcEED1Ev
	addi	a5,s0,-200
	mv	a0,a5
	call	_ZNSt7__cxx1112basic_stringIcSt11char_traitsIcESaIcEED1Ev
	addi	a5,s0,-136
	li	a1,0
	mv	a0,a5
	call	_ZNSt17_Rb_tree_iteratorISt4pairIKNSt7__cxx1112basic_stringIcSt11char_traitsIcESaIcEEES6_EEppEi
	j	.L137
.L136:
	ld	a1,-240(s0)
	lui	a5,%hi(_ZSt4cerr)
	addi	a0,a5,%lo(_ZSt4cerr)
.LEHB56:
	call	_ZStlsIcSt11char_traitsIcESaIcEERSt13basic_ostreamIT_T0_ES7_RKNSt7__cxx1112basic_stringIS4_S5_T1_EE
	mv	a4,a0
	lui	a5,%hi(.LC18)
	addi	a1,a5,%lo(.LC18)
	mv	a0,a4
	call	_ZStlsISt11char_traitsIcEERSt13basic_ostreamIcT_ES5_PKc
.LEHE56:
.L135:
	li	s1,1
	addi	a5,s0,-128
	mv	a0,a5
	call	_ZNSt7__cxx1112basic_stringIcSt11char_traitsIcESaIcEED1Ev
	mv	a5,s1
	j	.L149
.L145:
	mv	s1,a0
	addi	a5,s0,-72
	mv	a0,a5
	call	_ZNSt7__cxx1112basic_stringIcSt11char_traitsIcESaIcEED1Ev
	j	.L140
.L148:
	mv	s1,a0
	addi	a5,s0,-168
	mv	a0,a5
	call	_ZNSt7__cxx1112basic_stringIcSt11char_traitsIcESaIcEED1Ev
	j	.L142
.L147:
	mv	s1,a0
.L142:
	addi	a5,s0,-200
	mv	a0,a5
	call	_ZNSt7__cxx1112basic_stringIcSt11char_traitsIcESaIcEED1Ev
	mv	a5,s1
	j	.L143
.L146:
	mv	a5,a0
.L143:
	mv	s1,a5
	j	.L140
.L144:
	mv	s1,a0
.L140:
	addi	a5,s0,-128
	mv	a0,a5
	call	_ZNSt7__cxx1112basic_stringIcSt11char_traitsIcESaIcEED1Ev
	mv	a5,s1
	mv	a0,a5
.LEHB57:
	call	_Unwind_Resume
.LEHE57:
.L149:
	mv	a0,a5
	ld	ra,248(sp)
	.cfi_restore 1
	ld	s0,240(sp)
	.cfi_restore 8
	.cfi_def_cfa 2, 256
	ld	s1,232(sp)
	.cfi_restore 9
	addi	sp,sp,256
	.cfi_def_cfa_offset 0
	jr	ra
	.cfi_endproc
.LFE2766:
	.section	.gcc_except_table
.LLSDA2766:
	.byte	0xff
	.byte	0xff
	.byte	0x3
	.byte	0x5b
	.4byte	.LEHB51-.LFB2766
	.4byte	.LEHE51-.LEHB51
	.4byte	.L144-.LFB2766
	.byte	0
	.4byte	.LEHB52-.LFB2766
	.4byte	.LEHE52-.LEHB52
	.4byte	.L145-.LFB2766
	.byte	0
	.4byte	.LEHB53-.LFB2766
	.4byte	.LEHE53-.LEHB53
	.4byte	.L146-.LFB2766
	.byte	0
	.4byte	.LEHB54-.LFB2766
	.4byte	.LEHE54-.LEHB54
	.4byte	.L147-.LFB2766
	.byte	0
	.4byte	.LEHB55-.LFB2766
	.4byte	.LEHE55-.LEHB55
	.4byte	.L148-.LFB2766
	.byte	0
	.4byte	.LEHB56-.LFB2766
	.4byte	.LEHE56-.LEHB56
	.4byte	.L144-.LFB2766
	.byte	0
	.4byte	.LEHB57-.LFB2766
	.4byte	.LEHE57-.LEHB57
	.4byte	0
	.byte	0
	.text
	.size	_Z4mpreSt3mapINSt7__cxx1112basic_stringIcSt11char_traitsIcESaIcEEES5_St4lessIS5_ESaISt4pairIKS5_S5_EEEPciS5_S5_, .-_Z4mpreSt3mapINSt7__cxx1112basic_stringIcSt11char_traitsIcESaIcEEES5_St4lessIS5_ESaISt4pairIKS5_S5_EEEPciS5_S5_
	.section	.text._ZNSt3mapINSt7__cxx1112basic_stringIcSt11char_traitsIcESaIcEEES5_St4lessIS5_ESaISt4pairIKS5_S5_EEEC2ERKSC_,"axG",@progbits,_ZNSt3mapINSt7__cxx1112basic_stringIcSt11char_traitsIcESaIcEEES5_St4lessIS5_ESaISt4pairIKS5_S5_EEEC5ERKSC_,comdat
	.align	1
	.weak	_ZNSt3mapINSt7__cxx1112basic_stringIcSt11char_traitsIcESaIcEEES5_St4lessIS5_ESaISt4pairIKS5_S5_EEEC2ERKSC_
	.type	_ZNSt3mapINSt7__cxx1112basic_stringIcSt11char_traitsIcESaIcEEES5_St4lessIS5_ESaISt4pairIKS5_S5_EEEC2ERKSC_, @function
_ZNSt3mapINSt7__cxx1112basic_stringIcSt11char_traitsIcESaIcEEES5_St4lessIS5_ESaISt4pairIKS5_S5_EEEC2ERKSC_:
.LFB2770:
	.cfi_startproc
	addi	sp,sp,-32
	.cfi_def_cfa_offset 32
	sd	ra,24(sp)
	sd	s0,16(sp)
	.cfi_offset 1, -8
	.cfi_offset 8, -16
	addi	s0,sp,32
	.cfi_def_cfa 8, 0
	sd	a0,-24(s0)
	sd	a1,-32(s0)
	ld	a5,-24(s0)
	ld	a4,-32(s0)
	mv	a1,a4
	mv	a0,a5
	call	_ZNSt8_Rb_treeINSt7__cxx1112basic_stringIcSt11char_traitsIcESaIcEEESt4pairIKS5_S5_ESt10_Select1stIS8_ESt4lessIS5_ESaIS8_EEC1ERKSE_
	nop
	ld	ra,24(sp)
	.cfi_restore 1
	ld	s0,16(sp)
	.cfi_restore 8
	.cfi_def_cfa 2, 32
	addi	sp,sp,32
	.cfi_def_cfa_offset 0
	jr	ra
	.cfi_endproc
.LFE2770:
	.size	_ZNSt3mapINSt7__cxx1112basic_stringIcSt11char_traitsIcESaIcEEES5_St4lessIS5_ESaISt4pairIKS5_S5_EEEC2ERKSC_, .-_ZNSt3mapINSt7__cxx1112basic_stringIcSt11char_traitsIcESaIcEEES5_St4lessIS5_ESaISt4pairIKS5_S5_EEEC2ERKSC_
	.weak	_ZNSt3mapINSt7__cxx1112basic_stringIcSt11char_traitsIcESaIcEEES5_St4lessIS5_ESaISt4pairIKS5_S5_EEEC1ERKSC_
	.set	_ZNSt3mapINSt7__cxx1112basic_stringIcSt11char_traitsIcESaIcEEES5_St4lessIS5_ESaISt4pairIKS5_S5_EEEC1ERKSC_,_ZNSt3mapINSt7__cxx1112basic_stringIcSt11char_traitsIcESaIcEEES5_St4lessIS5_ESaISt4pairIKS5_S5_EEEC2ERKSC_
	.section	.text._ZNSt3mapINSt7__cxx1112basic_stringIcSt11char_traitsIcESaIcEEES5_St4lessIS5_ESaISt4pairIKS5_S5_EEED2Ev,"axG",@progbits,_ZNSt3mapINSt7__cxx1112basic_stringIcSt11char_traitsIcESaIcEEES5_St4lessIS5_ESaISt4pairIKS5_S5_EEED5Ev,comdat
	.align	1
	.weak	_ZNSt3mapINSt7__cxx1112basic_stringIcSt11char_traitsIcESaIcEEES5_St4lessIS5_ESaISt4pairIKS5_S5_EEED2Ev
	.type	_ZNSt3mapINSt7__cxx1112basic_stringIcSt11char_traitsIcESaIcEEES5_St4lessIS5_ESaISt4pairIKS5_S5_EEED2Ev, @function
_ZNSt3mapINSt7__cxx1112basic_stringIcSt11char_traitsIcESaIcEEES5_St4lessIS5_ESaISt4pairIKS5_S5_EEED2Ev:
.LFB2773:
	.cfi_startproc
	addi	sp,sp,-32
	.cfi_def_cfa_offset 32
	sd	ra,24(sp)
	sd	s0,16(sp)
	.cfi_offset 1, -8
	.cfi_offset 8, -16
	addi	s0,sp,32
	.cfi_def_cfa 8, 0
	sd	a0,-24(s0)
	ld	a5,-24(s0)
	mv	a0,a5
	call	_ZNSt8_Rb_treeINSt7__cxx1112basic_stringIcSt11char_traitsIcESaIcEEESt4pairIKS5_S5_ESt10_Select1stIS8_ESt4lessIS5_ESaIS8_EED1Ev
	nop
	ld	ra,24(sp)
	.cfi_restore 1
	ld	s0,16(sp)
	.cfi_restore 8
	.cfi_def_cfa 2, 32
	addi	sp,sp,32
	.cfi_def_cfa_offset 0
	jr	ra
	.cfi_endproc
.LFE2773:
	.size	_ZNSt3mapINSt7__cxx1112basic_stringIcSt11char_traitsIcESaIcEEES5_St4lessIS5_ESaISt4pairIKS5_S5_EEED2Ev, .-_ZNSt3mapINSt7__cxx1112basic_stringIcSt11char_traitsIcESaIcEEES5_St4lessIS5_ESaISt4pairIKS5_S5_EEED2Ev
	.weak	_ZNSt3mapINSt7__cxx1112basic_stringIcSt11char_traitsIcESaIcEEES5_St4lessIS5_ESaISt4pairIKS5_S5_EEED1Ev
	.set	_ZNSt3mapINSt7__cxx1112basic_stringIcSt11char_traitsIcESaIcEEES5_St4lessIS5_ESaISt4pairIKS5_S5_EEED1Ev,_ZNSt3mapINSt7__cxx1112basic_stringIcSt11char_traitsIcESaIcEEES5_St4lessIS5_ESaISt4pairIKS5_S5_EEED2Ev
	.section	.rodata
	.align	3
.LC24:
	.string	"Array"
	.align	3
.LC25:
	.string	"__"
	.align	3
.LC26:
	.string	"( // "
	.text
	.align	1
	.globl	_Z4mpreSt3mapIiS_INSt7__cxx1112basic_stringIcSt11char_traitsIcESaIcEEES5_St4lessIS5_ESaISt4pairIKS5_S5_EEES6_IiESaIS8_IKiSC_EEEPci
	.type	_Z4mpreSt3mapIiS_INSt7__cxx1112basic_stringIcSt11char_traitsIcESaIcEEES5_St4lessIS5_ESaISt4pairIKS5_S5_EEES6_IiESaIS8_IKiSC_EEEPci, @function
_Z4mpreSt3mapIiS_INSt7__cxx1112basic_stringIcSt11char_traitsIcESaIcEEES5_St4lessIS5_ESaISt4pairIKS5_S5_EEES6_IiESaIS8_IKiSC_EEEPci:
.LFB2768:
	.cfi_startproc
	.cfi_personality 0x9b,DW.ref.__gxx_personality_v0
	.cfi_lsda 0x1b,.LLSDA2768
	addi	sp,sp,-288
	.cfi_def_cfa_offset 288
	sd	ra,280(sp)
	sd	s0,272(sp)
	sd	s1,264(sp)
	.cfi_offset 1, -8
	.cfi_offset 8, -16
	.cfi_offset 9, -24
	addi	s0,sp,288
	.cfi_def_cfa 8, 0
	sd	a0,-264(s0)
	sd	a1,-272(s0)
	mv	a5,a2
	sw	a5,-276(s0)
	lui	a5,%hi(.LC24)
	addi	a1,a5,%lo(.LC24)
	lui	a5,%hi(_ZSt4cerr)
	addi	a0,a5,%lo(_ZSt4cerr)
.LEHB58:
	call	_ZStlsISt11char_traitsIcEERSt13basic_ostreamIcT_ES5_PKc
	lw	a5,-276(s0)
	sext.w	a5,a5
	ble	a5,zero,.L153
	lui	a5,%hi(.LC25)
	addi	a1,a5,%lo(.LC25)
	lui	a5,%hi(_ZSt4cerr)
	addi	a0,a5,%lo(_ZSt4cerr)
	call	_ZStlsISt11char_traitsIcEERSt13basic_ostreamIcT_ES5_PKc
	mv	s1,a0
	addi	a5,s0,-200
	lw	a4,-276(s0)
	mv	a1,a4
	mv	a0,a5
	call	_ZNSt7__cxx119to_stringEi
.LEHE58:
	addi	a5,s0,-200
	mv	a1,a5
	mv	a0,s1
.LEHB59:
	call	_ZStlsIcSt11char_traitsIcESaIcEERSt13basic_ostreamIT_T0_ES7_RKNSt7__cxx1112basic_stringIS4_S5_T1_EE
	mv	a4,a0
	lui	a5,%hi(.LC25)
	addi	a1,a5,%lo(.LC25)
	mv	a0,a4
	call	_ZStlsISt11char_traitsIcEERSt13basic_ostreamIcT_ES5_PKc
.LEHE59:
	addi	a5,s0,-200
	mv	a0,a5
	call	_ZNSt7__cxx1112basic_stringIcSt11char_traitsIcESaIcEED1Ev
.L153:
	lui	a5,%hi(.LC26)
	addi	a1,a5,%lo(.LC26)
	lui	a5,%hi(_ZSt4cerr)
	addi	a0,a5,%lo(_ZSt4cerr)
.LEHB60:
	call	_ZStlsISt11char_traitsIcEERSt13basic_ostreamIcT_ES5_PKc
	mv	a5,a0
	ld	a1,-272(s0)
	mv	a0,a5
	call	_ZStlsISt11char_traitsIcEERSt13basic_ostreamIcT_ES5_PKc
	mv	a4,a0
	lui	a5,%hi(.LC12)
	addi	a1,a5,%lo(.LC12)
	mv	a0,a4
	call	_ZStlsISt11char_traitsIcEERSt13basic_ostreamIcT_ES5_PKc
.LEHE60:
	ld	a0,-264(s0)
	call	_ZNSt3mapIiS_INSt7__cxx1112basic_stringIcSt11char_traitsIcESaIcEEES5_St4lessIS5_ESaISt4pairIKS5_S5_EEES6_IiESaIS8_IKiSC_EEE5beginEv
	mv	a5,a0
	sd	a5,-208(s0)
.L155:
	ld	a0,-264(s0)
	call	_ZNSt3mapIiS_INSt7__cxx1112basic_stringIcSt11char_traitsIcESaIcEEES5_St4lessIS5_ESaISt4pairIKS5_S5_EEES6_IiESaIS8_IKiSC_EEE3endEv
	mv	a5,a0
	sd	a5,-168(s0)
	addi	a4,s0,-168
	addi	a5,s0,-208
	mv	a1,a4
	mv	a0,a5
	call	_ZStneRKSt17_Rb_tree_iteratorISt4pairIKiSt3mapINSt7__cxx1112basic_stringIcSt11char_traitsIcESaIcEEES8_St4lessIS8_ESaIS0_IKS8_S8_EEEEESI_
	mv	a5,a0
	beq	a5,zero,.L154
	addi	a5,s0,-208
	mv	a0,a5
	call	_ZNKSt17_Rb_tree_iteratorISt4pairIKiSt3mapINSt7__cxx1112basic_stringIcSt11char_traitsIcESaIcEEES8_St4lessIS8_ESaIS0_IKS8_S8_EEEEEptEv
	mv	a5,a0
	lw	a5,0(a5)
	sw	a5,-36(s0)
	addi	a5,s0,-208
	mv	a0,a5
	call	_ZNKSt17_Rb_tree_iteratorISt4pairIKiSt3mapINSt7__cxx1112basic_stringIcSt11char_traitsIcESaIcEEES8_St4lessIS8_ESaIS0_IKS8_S8_EEEEEptEv
	mv	a5,a0
	addi	a4,a5,8
	addi	a5,s0,-256
	mv	a1,a4
	mv	a0,a5
.LEHB61:
	call	_ZNSt3mapINSt7__cxx1112basic_stringIcSt11char_traitsIcESaIcEEES5_St4lessIS5_ESaISt4pairIKS5_S5_EEEC1ERKSC_
.LEHE61:
	addi	a4,s0,-256
	addi	a5,s0,-160
	mv	a1,a4
	mv	a0,a5
.LEHB62:
	call	_ZNSt3mapINSt7__cxx1112basic_stringIcSt11char_traitsIcESaIcEEES5_St4lessIS5_ESaISt4pairIKS5_S5_EEEC1ERKSC_
.LEHE62:
	addi	a5,s0,-80
	mv	a0,a5
	call	_ZNSaIcEC1Ev
	addi	a5,s0,-80
	addi	a4,s0,-112
	mv	a2,a5
	lui	a5,%hi(.LC8)
	addi	a1,a5,%lo(.LC8)
	mv	a0,a4
.LEHB63:
	call	_ZNSt7__cxx1112basic_stringIcSt11char_traitsIcESaIcEEC1EPKcRKS3_
.LEHE63:
	addi	a5,s0,-40
	mv	a0,a5
	call	_ZNSaIcEC1Ev
	addi	a5,s0,-40
	addi	a4,s0,-72
	mv	a2,a5
	lui	a5,%hi(.LC8)
	addi	a1,a5,%lo(.LC8)
	mv	a0,a4
.LEHB64:
	call	_ZNSt7__cxx1112basic_stringIcSt11char_traitsIcESaIcEEC1EPKcRKS3_
.LEHE64:
	addi	a4,s0,-72
	addi	a3,s0,-112
	lw	a2,-276(s0)
	addi	a5,s0,-160
	ld	a1,-272(s0)
	mv	a0,a5
.LEHB65:
	call	_Z4mpreSt3mapINSt7__cxx1112basic_stringIcSt11char_traitsIcESaIcEEES5_St4lessIS5_ESaISt4pairIKS5_S5_EEEPciS5_S5_
.LEHE65:
	addi	a5,s0,-72
	mv	a0,a5
	call	_ZNSt7__cxx1112basic_stringIcSt11char_traitsIcESaIcEED1Ev
	addi	a5,s0,-40
	mv	a0,a5
	call	_ZNSaIcED1Ev
	addi	a5,s0,-112
	mv	a0,a5
	call	_ZNSt7__cxx1112basic_stringIcSt11char_traitsIcESaIcEED1Ev
	addi	a5,s0,-80
	mv	a0,a5
	call	_ZNSaIcED1Ev
	addi	a5,s0,-160
	mv	a0,a5
	call	_ZNSt3mapINSt7__cxx1112basic_stringIcSt11char_traitsIcESaIcEEES5_St4lessIS5_ESaISt4pairIKS5_S5_EEED1Ev
	addi	a5,s0,-256
	mv	a0,a5
	call	_ZNSt3mapINSt7__cxx1112basic_stringIcSt11char_traitsIcESaIcEEES5_St4lessIS5_ESaISt4pairIKS5_S5_EEED1Ev
	addi	a5,s0,-208
	li	a1,0
	mv	a0,a5
	call	_ZNSt17_Rb_tree_iteratorISt4pairIKiSt3mapINSt7__cxx1112basic_stringIcSt11char_traitsIcESaIcEEES8_St4lessIS8_ESaIS0_IKS8_S8_EEEEEppEi
	j	.L155
.L154:
	lui	a5,%hi(.LC18)
	addi	a1,a5,%lo(.LC18)
	lui	a5,%hi(_ZSt4cerr)
	addi	a0,a5,%lo(_ZSt4cerr)
.LEHB66:
	call	_ZStlsISt11char_traitsIcEERSt13basic_ostreamIcT_ES5_PKc
	li	a5,1
	j	.L169
.L163:
	mv	s1,a0
	addi	a5,s0,-200
	mv	a0,a5
	call	_ZNSt7__cxx1112basic_stringIcSt11char_traitsIcESaIcEED1Ev
	mv	a5,s1
	mv	a0,a5
	call	_Unwind_Resume
.L168:
	mv	s1,a0
	addi	a5,s0,-72
	mv	a0,a5
	call	_ZNSt7__cxx1112basic_stringIcSt11char_traitsIcESaIcEED1Ev
	j	.L159
.L167:
	mv	s1,a0
.L159:
	addi	a5,s0,-40
	mv	a0,a5
	call	_ZNSaIcED1Ev
	addi	a5,s0,-112
	mv	a0,a5
	call	_ZNSt7__cxx1112basic_stringIcSt11char_traitsIcESaIcEED1Ev
	j	.L160
.L166:
	mv	s1,a0
.L160:
	addi	a5,s0,-80
	mv	a0,a5
	call	_ZNSaIcED1Ev
	addi	a5,s0,-160
	mv	a0,a5
	call	_ZNSt3mapINSt7__cxx1112basic_stringIcSt11char_traitsIcESaIcEEES5_St4lessIS5_ESaISt4pairIKS5_S5_EEED1Ev
	j	.L161
.L165:
	mv	s1,a0
.L161:
	addi	a5,s0,-256
	mv	a0,a5
	call	_ZNSt3mapINSt7__cxx1112basic_stringIcSt11char_traitsIcESaIcEEES5_St4lessIS5_ESaISt4pairIKS5_S5_EEED1Ev
	mv	a5,s1
	j	.L162
.L164:
	mv	a5,a0
.L162:
	mv	a0,a5
	call	_Unwind_Resume
.LEHE66:
.L169:
	mv	a0,a5
	ld	ra,280(sp)
	.cfi_restore 1
	ld	s0,272(sp)
	.cfi_restore 8
	.cfi_def_cfa 2, 288
	ld	s1,264(sp)
	.cfi_restore 9
	addi	sp,sp,288
	.cfi_def_cfa_offset 0
	jr	ra
	.cfi_endproc
.LFE2768:
	.section	.gcc_except_table
.LLSDA2768:
	.byte	0xff
	.byte	0xff
	.byte	0x3
	.byte	0x75
	.4byte	.LEHB58-.LFB2768
	.4byte	.LEHE58-.LEHB58
	.4byte	0
	.byte	0
	.4byte	.LEHB59-.LFB2768
	.4byte	.LEHE59-.LEHB59
	.4byte	.L163-.LFB2768
	.byte	0
	.4byte	.LEHB60-.LFB2768
	.4byte	.LEHE60-.LEHB60
	.4byte	0
	.byte	0
	.4byte	.LEHB61-.LFB2768
	.4byte	.LEHE61-.LEHB61
	.4byte	.L164-.LFB2768
	.byte	0
	.4byte	.LEHB62-.LFB2768
	.4byte	.LEHE62-.LEHB62
	.4byte	.L165-.LFB2768
	.byte	0
	.4byte	.LEHB63-.LFB2768
	.4byte	.LEHE63-.LEHB63
	.4byte	.L166-.LFB2768
	.byte	0
	.4byte	.LEHB64-.LFB2768
	.4byte	.LEHE64-.LEHB64
	.4byte	.L167-.LFB2768
	.byte	0
	.4byte	.LEHB65-.LFB2768
	.4byte	.LEHE65-.LEHB65
	.4byte	.L168-.LFB2768
	.byte	0
	.4byte	.LEHB66-.LFB2768
	.4byte	.LEHE66-.LEHB66
	.4byte	0
	.byte	0
	.text
	.size	_Z4mpreSt3mapIiS_INSt7__cxx1112basic_stringIcSt11char_traitsIcESaIcEEES5_St4lessIS5_ESaISt4pairIKS5_S5_EEES6_IiESaIS8_IKiSC_EEEPci, .-_Z4mpreSt3mapIiS_INSt7__cxx1112basic_stringIcSt11char_traitsIcESaIcEEES5_St4lessIS5_ESaISt4pairIKS5_S5_EEES6_IiESaIS8_IKiSC_EEEPci
	.section	.rodata
	.align	3
.LC27:
	.string	"\t"
	.text
	.align	1
	.globl	_Z4mpreRSt3mapINSt7__cxx1112basic_stringIcSt11char_traitsIcESaIcEEES_IS5_S5_St4lessIS5_ESaISt4pairIKS5_S5_EEES7_SaIS8_IS9_SC_EEEPci
	.type	_Z4mpreRSt3mapINSt7__cxx1112basic_stringIcSt11char_traitsIcESaIcEEES_IS5_S5_St4lessIS5_ESaISt4pairIKS5_S5_EEES7_SaIS8_IS9_SC_EEEPci, @function
_Z4mpreRSt3mapINSt7__cxx1112basic_stringIcSt11char_traitsIcESaIcEEES_IS5_S5_St4lessIS5_ESaISt4pairIKS5_S5_EEES7_SaIS8_IS9_SC_EEEPci:
.LFB2775:
	.cfi_startproc
	.cfi_personality 0x9b,DW.ref.__gxx_personality_v0
	.cfi_lsda 0x1b,.LLSDA2775
	addi	sp,sp,-320
	.cfi_def_cfa_offset 320
	sd	ra,312(sp)
	sd	s0,304(sp)
	sd	s1,296(sp)
	.cfi_offset 1, -8
	.cfi_offset 8, -16
	.cfi_offset 9, -24
	addi	s0,sp,320
	.cfi_def_cfa 8, 0
	sd	a0,-296(s0)
	sd	a1,-304(s0)
	mv	a5,a2
	sw	a5,-308(s0)
	lui	a5,%hi(.LC24)
	addi	a1,a5,%lo(.LC24)
	lui	a5,%hi(_ZSt4cerr)
	addi	a0,a5,%lo(_ZSt4cerr)
.LEHB67:
	call	_ZStlsISt11char_traitsIcEERSt13basic_ostreamIcT_ES5_PKc
	lw	a5,-308(s0)
	sext.w	a5,a5
	ble	a5,zero,.L171
	lui	a5,%hi(.LC25)
	addi	a1,a5,%lo(.LC25)
	lui	a5,%hi(_ZSt4cerr)
	addi	a0,a5,%lo(_ZSt4cerr)
	call	_ZStlsISt11char_traitsIcEERSt13basic_ostreamIcT_ES5_PKc
	mv	s1,a0
	addi	a5,s0,-192
	lw	a4,-308(s0)
	mv	a1,a4
	mv	a0,a5
	call	_ZNSt7__cxx119to_stringEi
.LEHE67:
	addi	a5,s0,-192
	mv	a1,a5
	mv	a0,s1
.LEHB68:
	call	_ZStlsIcSt11char_traitsIcESaIcEERSt13basic_ostreamIT_T0_ES7_RKNSt7__cxx1112basic_stringIS4_S5_T1_EE
	mv	a4,a0
	lui	a5,%hi(.LC25)
	addi	a1,a5,%lo(.LC25)
	mv	a0,a4
	call	_ZStlsISt11char_traitsIcEERSt13basic_ostreamIcT_ES5_PKc
.LEHE68:
	addi	a5,s0,-192
	mv	a0,a5
	call	_ZNSt7__cxx1112basic_stringIcSt11char_traitsIcESaIcEED1Ev
.L171:
	lui	a5,%hi(.LC26)
	addi	a1,a5,%lo(.LC26)
	lui	a5,%hi(_ZSt4cerr)
	addi	a0,a5,%lo(_ZSt4cerr)
.LEHB69:
	call	_ZStlsISt11char_traitsIcEERSt13basic_ostreamIcT_ES5_PKc
	mv	a5,a0
	ld	a1,-304(s0)
	mv	a0,a5
	call	_ZStlsISt11char_traitsIcEERSt13basic_ostreamIcT_ES5_PKc
	mv	a4,a0
	lui	a5,%hi(.LC12)
	addi	a1,a5,%lo(.LC12)
	mv	a0,a4
	call	_ZStlsISt11char_traitsIcEERSt13basic_ostreamIcT_ES5_PKc
.LEHE69:
	ld	a0,-296(s0)
	call	_ZNSt3mapINSt7__cxx1112basic_stringIcSt11char_traitsIcESaIcEEES_IS5_S5_St4lessIS5_ESaISt4pairIKS5_S5_EEES7_SaIS8_IS9_SC_EEE5beginEv
	mv	a5,a0
	sd	a5,-200(s0)
.L173:
	ld	a0,-296(s0)
	call	_ZNSt3mapINSt7__cxx1112basic_stringIcSt11char_traitsIcESaIcEEES_IS5_S5_St4lessIS5_ESaISt4pairIKS5_S5_EEES7_SaIS8_IS9_SC_EEE3endEv
	mv	a5,a0
	sd	a5,-160(s0)
	addi	a4,s0,-160
	addi	a5,s0,-200
	mv	a1,a4
	mv	a0,a5
	call	_ZStneRKSt17_Rb_tree_iteratorISt4pairIKNSt7__cxx1112basic_stringIcSt11char_traitsIcESaIcEEESt3mapIS6_S6_St4lessIS6_ESaIS0_IS7_S6_EEEEESH_
	mv	a5,a0
	beq	a5,zero,.L172
	addi	a5,s0,-200
	mv	a0,a5
	call	_ZNKSt17_Rb_tree_iteratorISt4pairIKNSt7__cxx1112basic_stringIcSt11char_traitsIcESaIcEEESt3mapIS6_S6_St4lessIS6_ESaIS0_IS7_S6_EEEEEptEv
	mv	a5,a0
	mv	a4,a5
	addi	a5,s0,-280
	mv	a1,a4
	mv	a0,a5
.LEHB70:
	call	_ZNSt7__cxx1112basic_stringIcSt11char_traitsIcESaIcEEC1ERKS4_
.LEHE70:
	addi	a5,s0,-200
	mv	a0,a5
	call	_ZNKSt17_Rb_tree_iteratorISt4pairIKNSt7__cxx1112basic_stringIcSt11char_traitsIcESaIcEEESt3mapIS6_S6_St4lessIS6_ESaIS0_IS7_S6_EEEEEptEv
	mv	a5,a0
	addi	a4,a5,32
	addi	a5,s0,-248
	mv	a1,a4
	mv	a0,a5
.LEHB71:
	call	_ZNSt3mapINSt7__cxx1112basic_stringIcSt11char_traitsIcESaIcEEES5_St4lessIS5_ESaISt4pairIKS5_S5_EEEC1ERKSC_
.LEHE71:
	addi	a4,s0,-248
	addi	a5,s0,-152
	mv	a1,a4
	mv	a0,a5
.LEHB72:
	call	_ZNSt3mapINSt7__cxx1112basic_stringIcSt11char_traitsIcESaIcEEES5_St4lessIS5_ESaISt4pairIKS5_S5_EEEC1ERKSC_
.LEHE72:
	addi	a5,s0,-72
	mv	a0,a5
	call	_ZNSaIcEC1Ev
	addi	a5,s0,-72
	addi	a4,s0,-104
	mv	a2,a5
	lui	a5,%hi(.LC27)
	addi	a1,a5,%lo(.LC27)
	mv	a0,a4
.LEHB73:
	call	_ZNSt7__cxx1112basic_stringIcSt11char_traitsIcESaIcEEC1EPKcRKS3_
.LEHE73:
	addi	a4,s0,-280
	addi	a5,s0,-64
	mv	a1,a4
	mv	a0,a5
.LEHB74:
	call	_ZNSt7__cxx1112basic_stringIcSt11char_traitsIcESaIcEEC1ERKS4_
.LEHE74:
	addi	a4,s0,-64
	addi	a3,s0,-104
	lw	a2,-308(s0)
	addi	a5,s0,-152
	ld	a1,-304(s0)
	mv	a0,a5
.LEHB75:
	call	_Z4mpreSt3mapINSt7__cxx1112basic_stringIcSt11char_traitsIcESaIcEEES5_St4lessIS5_ESaISt4pairIKS5_S5_EEEPciS5_S5_
.LEHE75:
	addi	a5,s0,-64
	mv	a0,a5
	call	_ZNSt7__cxx1112basic_stringIcSt11char_traitsIcESaIcEED1Ev
	addi	a5,s0,-104
	mv	a0,a5
	call	_ZNSt7__cxx1112basic_stringIcSt11char_traitsIcESaIcEED1Ev
	addi	a5,s0,-72
	mv	a0,a5
	call	_ZNSaIcED1Ev
	addi	a5,s0,-152
	mv	a0,a5
	call	_ZNSt3mapINSt7__cxx1112basic_stringIcSt11char_traitsIcESaIcEEES5_St4lessIS5_ESaISt4pairIKS5_S5_EEED1Ev
	addi	a5,s0,-248
	mv	a0,a5
	call	_ZNSt3mapINSt7__cxx1112basic_stringIcSt11char_traitsIcESaIcEEES5_St4lessIS5_ESaISt4pairIKS5_S5_EEED1Ev
	addi	a5,s0,-280
	mv	a0,a5
	call	_ZNSt7__cxx1112basic_stringIcSt11char_traitsIcESaIcEED1Ev
	addi	a5,s0,-200
	li	a1,0
	mv	a0,a5
	call	_ZNSt17_Rb_tree_iteratorISt4pairIKNSt7__cxx1112basic_stringIcSt11char_traitsIcESaIcEEESt3mapIS6_S6_St4lessIS6_ESaIS0_IS7_S6_EEEEEppEi
	j	.L173
.L172:
	lui	a5,%hi(.LC18)
	addi	a1,a5,%lo(.LC18)
	lui	a5,%hi(_ZSt4cerr)
	addi	a0,a5,%lo(_ZSt4cerr)
.LEHB76:
	call	_ZStlsISt11char_traitsIcEERSt13basic_ostreamIcT_ES5_PKc
	li	a5,1
	j	.L189
.L182:
	mv	s1,a0
	addi	a5,s0,-192
	mv	a0,a5
	call	_ZNSt7__cxx1112basic_stringIcSt11char_traitsIcESaIcEED1Ev
	mv	a5,s1
	mv	a0,a5
	call	_Unwind_Resume
.L188:
	mv	s1,a0
	addi	a5,s0,-64
	mv	a0,a5
	call	_ZNSt7__cxx1112basic_stringIcSt11char_traitsIcESaIcEED1Ev
	j	.L177
.L187:
	mv	s1,a0
.L177:
	addi	a5,s0,-104
	mv	a0,a5
	call	_ZNSt7__cxx1112basic_stringIcSt11char_traitsIcESaIcEED1Ev
	j	.L178
.L186:
	mv	s1,a0
.L178:
	addi	a5,s0,-72
	mv	a0,a5
	call	_ZNSaIcED1Ev
	addi	a5,s0,-152
	mv	a0,a5
	call	_ZNSt3mapINSt7__cxx1112basic_stringIcSt11char_traitsIcESaIcEEES5_St4lessIS5_ESaISt4pairIKS5_S5_EEED1Ev
	j	.L179
.L185:
	mv	s1,a0
.L179:
	addi	a5,s0,-248
	mv	a0,a5
	call	_ZNSt3mapINSt7__cxx1112basic_stringIcSt11char_traitsIcESaIcEEES5_St4lessIS5_ESaISt4pairIKS5_S5_EEED1Ev
	j	.L180
.L184:
	mv	s1,a0
.L180:
	addi	a5,s0,-280
	mv	a0,a5
	call	_ZNSt7__cxx1112basic_stringIcSt11char_traitsIcESaIcEED1Ev
	mv	a5,s1
	j	.L181
.L183:
	mv	a5,a0
.L181:
	mv	a0,a5
	call	_Unwind_Resume
.LEHE76:
.L189:
	mv	a0,a5
	ld	ra,312(sp)
	.cfi_restore 1
	ld	s0,304(sp)
	.cfi_restore 8
	.cfi_def_cfa 2, 320
	ld	s1,296(sp)
	.cfi_restore 9
	addi	sp,sp,320
	.cfi_def_cfa_offset 0
	jr	ra
	.cfi_endproc
.LFE2775:
	.section	.gcc_except_table
.LLSDA2775:
	.byte	0xff
	.byte	0xff
	.byte	0x3
	.byte	0x82,0x1
	.4byte	.LEHB67-.LFB2775
	.4byte	.LEHE67-.LEHB67
	.4byte	0
	.byte	0
	.4byte	.LEHB68-.LFB2775
	.4byte	.LEHE68-.LEHB68
	.4byte	.L182-.LFB2775
	.byte	0
	.4byte	.LEHB69-.LFB2775
	.4byte	.LEHE69-.LEHB69
	.4byte	0
	.byte	0
	.4byte	.LEHB70-.LFB2775
	.4byte	.LEHE70-.LEHB70
	.4byte	.L183-.LFB2775
	.byte	0
	.4byte	.LEHB71-.LFB2775
	.4byte	.LEHE71-.LEHB71
	.4byte	.L184-.LFB2775
	.byte	0
	.4byte	.LEHB72-.LFB2775
	.4byte	.LEHE72-.LEHB72
	.4byte	.L185-.LFB2775
	.byte	0
	.4byte	.LEHB73-.LFB2775
	.4byte	.LEHE73-.LEHB73
	.4byte	.L186-.LFB2775
	.byte	0
	.4byte	.LEHB74-.LFB2775
	.4byte	.LEHE74-.LEHB74
	.4byte	.L187-.LFB2775
	.byte	0
	.4byte	.LEHB75-.LFB2775
	.4byte	.LEHE75-.LEHB75
	.4byte	.L188-.LFB2775
	.byte	0
	.4byte	.LEHB76-.LFB2775
	.4byte	.LEHE76-.LEHB76
	.4byte	0
	.byte	0
	.text
	.size	_Z4mpreRSt3mapINSt7__cxx1112basic_stringIcSt11char_traitsIcESaIcEEES_IS5_S5_St4lessIS5_ESaISt4pairIKS5_S5_EEES7_SaIS8_IS9_SC_EEEPci, .-_Z4mpreRSt3mapINSt7__cxx1112basic_stringIcSt11char_traitsIcESaIcEEES_IS5_S5_St4lessIS5_ESaISt4pairIKS5_S5_EEES7_SaIS8_IS9_SC_EEEPci
	.align	1
	.type	_ZZ4mpreRSt3mapINSt7__cxx1112basic_stringIcSt11char_traitsIcESaIcEEES_IiS_IS5_S5_St4lessIS5_ESaISt4pairIKS5_S5_EEES6_IiESaIS8_IKiSC_EEES7_SaIS8_IS9_SH_EEEPciENKUlvE_clEv, @function
_ZZ4mpreRSt3mapINSt7__cxx1112basic_stringIcSt11char_traitsIcESaIcEEES_IiS_IS5_S5_St4lessIS5_ESaISt4pairIKS5_S5_EEES6_IiESaIS8_IKiSC_EEES7_SaIS8_IS9_SH_EEEPciENKUlvE_clEv:
.LFB2777:
	.cfi_startproc
	addi	sp,sp,-32
	.cfi_def_cfa_offset 32
	sd	ra,24(sp)
	sd	s0,16(sp)
	.cfi_offset 1, -8
	.cfi_offset 8, -16
	addi	s0,sp,32
	.cfi_def_cfa 8, 0
	sd	a0,-24(s0)
	ld	a5,-24(s0)
	ld	a4,0(a5)
	ld	a5,-24(s0)
	ld	a5,8(a5)
	mv	a1,a5
	mv	a0,a4
	call	_ZNSt7__cxx1112basic_stringIcSt11char_traitsIcESaIcEEaSERKS4_
	li	a5,0
	mv	a0,a5
	ld	ra,24(sp)
	.cfi_restore 1
	ld	s0,16(sp)
	.cfi_restore 8
	.cfi_def_cfa 2, 32
	addi	sp,sp,32
	.cfi_def_cfa_offset 0
	jr	ra
	.cfi_endproc
.LFE2777:
	.size	_ZZ4mpreRSt3mapINSt7__cxx1112basic_stringIcSt11char_traitsIcESaIcEEES_IiS_IS5_S5_St4lessIS5_ESaISt4pairIKS5_S5_EEES6_IiESaIS8_IKiSC_EEES7_SaIS8_IS9_SH_EEEPciENKUlvE_clEv, .-_ZZ4mpreRSt3mapINSt7__cxx1112basic_stringIcSt11char_traitsIcESaIcEEES_IiS_IS5_S5_St4lessIS5_ESaISt4pairIKS5_S5_EEES6_IiESaIS8_IKiSC_EEES7_SaIS8_IS9_SH_EEEPciENKUlvE_clEv
	.section	.rodata
	.align	3
.LC28:
	.string	"\320\236\320\250\320\230\320\221\320\232\320\220 \320\277\320\276\320\273\321\203\321\207\320\265\320\275\320\270\321\217 \320\272\320\273\321\216\321\207\320\260 \320\276\321\207\320\265\321\200\320\265\320\264\320\275\320\276\320\263\320\276 \321\215\320\273\320\265\320\274\320\265\320\275\321\202\320\260"
	.align	3
.LC29:
	.string	"\tArray"
	.align	3
.LC30:
	.string	"\t)\n"
	.text
	.align	1
	.globl	_Z4mpreRSt3mapINSt7__cxx1112basic_stringIcSt11char_traitsIcESaIcEEES_IiS_IS5_S5_St4lessIS5_ESaISt4pairIKS5_S5_EEES6_IiESaIS8_IKiSC_EEES7_SaIS8_IS9_SH_EEEPci
	.type	_Z4mpreRSt3mapINSt7__cxx1112basic_stringIcSt11char_traitsIcESaIcEEES_IiS_IS5_S5_St4lessIS5_ESaISt4pairIKS5_S5_EEES6_IiESaIS8_IKiSC_EEES7_SaIS8_IS9_SH_EEEPci, @function
_Z4mpreRSt3mapINSt7__cxx1112basic_stringIcSt11char_traitsIcESaIcEEES_IiS_IS5_S5_St4lessIS5_ESaISt4pairIKS5_S5_EEES6_IiESaIS8_IKiSC_EEES7_SaIS8_IS9_SH_EEEPci:
.LFB2776:
	.cfi_startproc
	.cfi_personality 0x9b,DW.ref.__gxx_personality_v0
	.cfi_lsda 0x1b,.LLSDA2776
	addi	sp,sp,-416
	.cfi_def_cfa_offset 416
	sd	ra,408(sp)
	sd	s0,400(sp)
	sd	s1,392(sp)
	.cfi_offset 1, -8
	.cfi_offset 8, -16
	.cfi_offset 9, -24
	addi	s0,sp,416
	.cfi_def_cfa 8, 0
	sd	a0,-392(s0)
	sd	a1,-400(s0)
	mv	a5,a2
	sw	a5,-404(s0)
	lui	a5,%hi(.LC24)
	addi	a1,a5,%lo(.LC24)
	lui	a5,%hi(_ZSt4cerr)
	addi	a0,a5,%lo(_ZSt4cerr)
.LEHB77:
	call	_ZStlsISt11char_traitsIcEERSt13basic_ostreamIcT_ES5_PKc
	lw	a5,-404(s0)
	sext.w	a5,a5
	ble	a5,zero,.L193
	lui	a5,%hi(.LC25)
	addi	a1,a5,%lo(.LC25)
	lui	a5,%hi(_ZSt4cerr)
	addi	a0,a5,%lo(_ZSt4cerr)
	call	_ZStlsISt11char_traitsIcEERSt13basic_ostreamIcT_ES5_PKc
	mv	s1,a0
	addi	a5,s0,-272
	lw	a4,-404(s0)
	mv	a1,a4
	mv	a0,a5
	call	_ZNSt7__cxx119to_stringEi
.LEHE77:
	addi	a5,s0,-272
	mv	a1,a5
	mv	a0,s1
.LEHB78:
	call	_ZStlsIcSt11char_traitsIcESaIcEERSt13basic_ostreamIT_T0_ES7_RKNSt7__cxx1112basic_stringIS4_S5_T1_EE
	mv	a4,a0
	lui	a5,%hi(.LC25)
	addi	a1,a5,%lo(.LC25)
	mv	a0,a4
	call	_ZStlsISt11char_traitsIcEERSt13basic_ostreamIcT_ES5_PKc
.LEHE78:
	addi	a5,s0,-272
	mv	a0,a5
	call	_ZNSt7__cxx1112basic_stringIcSt11char_traitsIcESaIcEED1Ev
.L193:
	lui	a5,%hi(.LC26)
	addi	a1,a5,%lo(.LC26)
	lui	a5,%hi(_ZSt4cerr)
	addi	a0,a5,%lo(_ZSt4cerr)
.LEHB79:
	call	_ZStlsISt11char_traitsIcEERSt13basic_ostreamIcT_ES5_PKc
	mv	a5,a0
	ld	a1,-400(s0)
	mv	a0,a5
	call	_ZStlsISt11char_traitsIcEERSt13basic_ostreamIcT_ES5_PKc
	mv	a4,a0
	lui	a5,%hi(.LC12)
	addi	a1,a5,%lo(.LC12)
	mv	a0,a4
	call	_ZStlsISt11char_traitsIcEERSt13basic_ostreamIcT_ES5_PKc
.LEHE79:
	ld	a5,-392(s0)
	sd	a5,-40(s0)
	ld	a0,-40(s0)
	call	_ZNSt3mapINSt7__cxx1112basic_stringIcSt11char_traitsIcESaIcEEES_IiS_IS5_S5_St4lessIS5_ESaISt4pairIKS5_S5_EEES6_IiESaIS8_IKiSC_EEES7_SaIS8_IS9_SH_EEE5beginEv
	mv	a5,a0
	sd	a5,-280(s0)
	ld	a0,-40(s0)
	call	_ZNSt3mapINSt7__cxx1112basic_stringIcSt11char_traitsIcESaIcEEES_IiS_IS5_S5_St4lessIS5_ESaISt4pairIKS5_S5_EEES6_IiESaIS8_IKiSC_EEES7_SaIS8_IS9_SH_EEE3endEv
	mv	a5,a0
	sd	a5,-288(s0)
.L200:
	addi	a4,s0,-288
	addi	a5,s0,-280
	mv	a1,a4
	mv	a0,a5
	call	_ZStneRKSt17_Rb_tree_iteratorISt4pairIKNSt7__cxx1112basic_stringIcSt11char_traitsIcESaIcEEESt3mapIiS8_IS6_S6_St4lessIS6_ESaIS0_IS7_S6_EEES9_IiESaIS0_IKiSD_EEEEESM_
	mv	a5,a0
	beq	a5,zero,.L194
	addi	a5,s0,-280
	mv	a0,a5
	call	_ZNKSt17_Rb_tree_iteratorISt4pairIKNSt7__cxx1112basic_stringIcSt11char_traitsIcESaIcEEESt3mapIiS8_IS6_S6_St4lessIS6_ESaIS0_IS7_S6_EEES9_IiESaIS0_IKiSD_EEEEEdeEv
	sd	a0,-48(s0)
	addi	a5,s0,-376
	mv	a0,a5
	call	_ZNSt7__cxx1112basic_stringIcSt11char_traitsIcESaIcEEC1Ev
	addi	a5,s0,-376
	sd	a5,-240(s0)
	ld	a5,-48(s0)
	sd	a5,-232(s0)
	addi	a5,s0,-240
	mv	a0,a5
.LEHB80:
	call	_ZZ4mpreRSt3mapINSt7__cxx1112basic_stringIcSt11char_traitsIcESaIcEEES_IiS_IS5_S5_St4lessIS5_ESaISt4pairIKS5_S5_EEES6_IiESaIS8_IKiSC_EEES7_SaIS8_IS9_SH_EEEPciENKUlvE_clEv
.LEHE80:
	mv	a5,a0
	beq	a5,zero,.L195
	addi	a5,s0,-192
	mv	a0,a5
	call	_ZNSaIcEC1Ev
	addi	a5,s0,-192
	addi	a4,s0,-224
	mv	a2,a5
	lui	a5,%hi(.LC28)
	addi	a1,a5,%lo(.LC28)
	mv	a0,a4
.LEHB81:
	call	_ZNSt7__cxx1112basic_stringIcSt11char_traitsIcESaIcEEC1EPKcRKS3_
.LEHE81:
	addi	a5,s0,-224
	li	a1,110
	mv	a0,a5
.LEHB82:
	call	_Z4mpreNSt7__cxx1112basic_stringIcSt11char_traitsIcESaIcEEEi
.LEHE82:
	addi	a5,s0,-224
	mv	a0,a5
	call	_ZNSt7__cxx1112basic_stringIcSt11char_traitsIcESaIcEED1Ev
	addi	a5,s0,-192
	mv	a0,a5
	call	_ZNSaIcED1Ev
	j	.L196
.L195:
	lui	a5,%hi(.LC29)
	addi	a1,a5,%lo(.LC29)
	lui	a5,%hi(_ZSt4cerr)
	addi	a0,a5,%lo(_ZSt4cerr)
.LEHB83:
	call	_ZStlsISt11char_traitsIcEERSt13basic_ostreamIcT_ES5_PKc
	lw	a5,-404(s0)
	sext.w	a5,a5
	ble	a5,zero,.L197
	lui	a5,%hi(.LC27)
	addi	a1,a5,%lo(.LC27)
	lui	a5,%hi(_ZSt4cerr)
	addi	a0,a5,%lo(_ZSt4cerr)
	call	_ZStlsISt11char_traitsIcEERSt13basic_ostreamIcT_ES5_PKc
	mv	a4,a0
	addi	a5,s0,-376
	mv	a1,a5
	mv	a0,a4
	call	_ZStlsIcSt11char_traitsIcESaIcEERSt13basic_ostreamIT_T0_ES7_RKNSt7__cxx1112basic_stringIS4_S5_T1_EE
	mv	a4,a0
	lui	a5,%hi(.LC9)
	addi	a1,a5,%lo(.LC9)
	mv	a0,a4
	call	_ZStlsISt11char_traitsIcEERSt13basic_ostreamIcT_ES5_PKc
.L197:
	lui	a5,%hi(.LC26)
	addi	a1,a5,%lo(.LC26)
	lui	a5,%hi(_ZSt4cerr)
	addi	a0,a5,%lo(_ZSt4cerr)
	call	_ZStlsISt11char_traitsIcEERSt13basic_ostreamIcT_ES5_PKc
	mv	a5,a0
	ld	a1,-400(s0)
	mv	a0,a5
	call	_ZStlsISt11char_traitsIcEERSt13basic_ostreamIcT_ES5_PKc
	mv	a4,a0
	lui	a5,%hi(.LC12)
	addi	a1,a5,%lo(.LC12)
	mv	a0,a4
	call	_ZStlsISt11char_traitsIcEERSt13basic_ostreamIcT_ES5_PKc
.LEHE83:
	ld	a5,-48(s0)
	addi	a5,a5,32
	mv	a0,a5
	call	_ZNSt3mapIiS_INSt7__cxx1112basic_stringIcSt11char_traitsIcESaIcEEES5_St4lessIS5_ESaISt4pairIKS5_S5_EEES6_IiESaIS8_IKiSC_EEE5beginEv
	mv	a5,a0
	sd	a5,-296(s0)
.L199:
	ld	a5,-48(s0)
	addi	a5,a5,32
	mv	a0,a5
	call	_ZNSt3mapIiS_INSt7__cxx1112basic_stringIcSt11char_traitsIcESaIcEEES5_St4lessIS5_ESaISt4pairIKS5_S5_EEES6_IiESaIS8_IKiSC_EEE3endEv
	mv	a5,a0
	sd	a5,-184(s0)
	addi	a4,s0,-184
	addi	a5,s0,-296
	mv	a1,a4
	mv	a0,a5
	call	_ZStneRKSt17_Rb_tree_iteratorISt4pairIKiSt3mapINSt7__cxx1112basic_stringIcSt11char_traitsIcESaIcEEES8_St4lessIS8_ESaIS0_IKS8_S8_EEEEESI_
	mv	a5,a0
	beq	a5,zero,.L198
	addi	a5,s0,-296
	mv	a0,a5
	call	_ZNKSt17_Rb_tree_iteratorISt4pairIKiSt3mapINSt7__cxx1112basic_stringIcSt11char_traitsIcESaIcEEES8_St4lessIS8_ESaIS0_IKS8_S8_EEEEEptEv
	mv	a5,a0
	lw	a5,0(a5)
	sw	a5,-52(s0)
	addi	a5,s0,-296
	mv	a0,a5
	call	_ZNKSt17_Rb_tree_iteratorISt4pairIKiSt3mapINSt7__cxx1112basic_stringIcSt11char_traitsIcESaIcEEES8_St4lessIS8_ESaIS0_IKS8_S8_EEEEEptEv
	mv	a5,a0
	addi	a4,a5,8
	addi	a5,s0,-344
	mv	a1,a4
	mv	a0,a5
.LEHB84:
	call	_ZNSt3mapINSt7__cxx1112basic_stringIcSt11char_traitsIcESaIcEEES5_St4lessIS5_ESaISt4pairIKS5_S5_EEEC1ERKSC_
.LEHE84:
	addi	a4,s0,-344
	addi	a5,s0,-176
	mv	a1,a4
	mv	a0,a5
.LEHB85:
	call	_ZNSt3mapINSt7__cxx1112basic_stringIcSt11char_traitsIcESaIcEEES5_St4lessIS5_ESaISt4pairIKS5_S5_EEEC1ERKSC_
.LEHE85:
	addi	a5,s0,-96
	mv	a0,a5
	call	_ZNSaIcEC1Ev
	addi	a5,s0,-96
	addi	a4,s0,-128
	mv	a2,a5
	lui	a5,%hi(.LC8)
	addi	a1,a5,%lo(.LC8)
	mv	a0,a4
.LEHB86:
	call	_ZNSt7__cxx1112basic_stringIcSt11char_traitsIcESaIcEEC1EPKcRKS3_
.LEHE86:
	addi	a5,s0,-56
	mv	a0,a5
	call	_ZNSaIcEC1Ev
	addi	a5,s0,-56
	addi	a4,s0,-88
	mv	a2,a5
	lui	a5,%hi(.LC8)
	addi	a1,a5,%lo(.LC8)
	mv	a0,a4
.LEHB87:
	call	_ZNSt7__cxx1112basic_stringIcSt11char_traitsIcESaIcEEC1EPKcRKS3_
.LEHE87:
	addi	a4,s0,-88
	addi	a3,s0,-128
	lw	a2,-404(s0)
	addi	a5,s0,-176
	ld	a1,-400(s0)
	mv	a0,a5
.LEHB88:
	call	_Z4mpreSt3mapINSt7__cxx1112basic_stringIcSt11char_traitsIcESaIcEEES5_St4lessIS5_ESaISt4pairIKS5_S5_EEEPciS5_S5_
.LEHE88:
	addi	a5,s0,-88
	mv	a0,a5
	call	_ZNSt7__cxx1112basic_stringIcSt11char_traitsIcESaIcEED1Ev
	addi	a5,s0,-56
	mv	a0,a5
	call	_ZNSaIcED1Ev
	addi	a5,s0,-128
	mv	a0,a5
	call	_ZNSt7__cxx1112basic_stringIcSt11char_traitsIcESaIcEED1Ev
	addi	a5,s0,-96
	mv	a0,a5
	call	_ZNSaIcED1Ev
	addi	a5,s0,-176
	mv	a0,a5
	call	_ZNSt3mapINSt7__cxx1112basic_stringIcSt11char_traitsIcESaIcEEES5_St4lessIS5_ESaISt4pairIKS5_S5_EEED1Ev
	addi	a5,s0,-344
	mv	a0,a5
	call	_ZNSt3mapINSt7__cxx1112basic_stringIcSt11char_traitsIcESaIcEEES5_St4lessIS5_ESaISt4pairIKS5_S5_EEED1Ev
	addi	a5,s0,-296
	li	a1,0
	mv	a0,a5
	call	_ZNSt17_Rb_tree_iteratorISt4pairIKiSt3mapINSt7__cxx1112basic_stringIcSt11char_traitsIcESaIcEEES8_St4lessIS8_ESaIS0_IKS8_S8_EEEEEppEi
	j	.L199
.L198:
	lui	a5,%hi(.LC30)
	addi	a1,a5,%lo(.LC30)
	lui	a5,%hi(_ZSt4cerr)
	addi	a0,a5,%lo(_ZSt4cerr)
.LEHB89:
	call	_ZStlsISt11char_traitsIcEERSt13basic_ostreamIcT_ES5_PKc
.LEHE89:
.L196:
	addi	a5,s0,-376
	mv	a0,a5
	call	_ZNSt7__cxx1112basic_stringIcSt11char_traitsIcESaIcEED1Ev
	addi	a5,s0,-280
	mv	a0,a5
	call	_ZNSt17_Rb_tree_iteratorISt4pairIKNSt7__cxx1112basic_stringIcSt11char_traitsIcESaIcEEESt3mapIiS8_IS6_S6_St4lessIS6_ESaIS0_IS7_S6_EEES9_IiESaIS0_IKiSD_EEEEEppEv
	j	.L200
.L194:
	lui	a5,%hi(.LC18)
	addi	a1,a5,%lo(.LC18)
	lui	a5,%hi(_ZSt4cerr)
	addi	a0,a5,%lo(_ZSt4cerr)
.LEHB90:
	call	_ZStlsISt11char_traitsIcEERSt13basic_ostreamIcT_ES5_PKc
	li	a5,1
	j	.L220
.L211:
	mv	s1,a0
	addi	a5,s0,-272
	mv	a0,a5
	call	_ZNSt7__cxx1112basic_stringIcSt11char_traitsIcESaIcEED1Ev
	mv	a5,s1
	mv	a0,a5
	call	_Unwind_Resume
.L214:
	mv	s1,a0
	addi	a5,s0,-224
	mv	a0,a5
	call	_ZNSt7__cxx1112basic_stringIcSt11char_traitsIcESaIcEED1Ev
	j	.L204
.L213:
	mv	s1,a0
.L204:
	addi	a5,s0,-192
	mv	a0,a5
	call	_ZNSaIcED1Ev
	j	.L205
.L219:
	mv	s1,a0
	addi	a5,s0,-88
	mv	a0,a5
	call	_ZNSt7__cxx1112basic_stringIcSt11char_traitsIcESaIcEED1Ev
	j	.L207
.L218:
	mv	s1,a0
.L207:
	addi	a5,s0,-56
	mv	a0,a5
	call	_ZNSaIcED1Ev
	addi	a5,s0,-128
	mv	a0,a5
	call	_ZNSt7__cxx1112basic_stringIcSt11char_traitsIcESaIcEED1Ev
	j	.L208
.L217:
	mv	s1,a0
.L208:
	addi	a5,s0,-96
	mv	a0,a5
	call	_ZNSaIcED1Ev
	addi	a5,s0,-176
	mv	a0,a5
	call	_ZNSt3mapINSt7__cxx1112basic_stringIcSt11char_traitsIcESaIcEEES5_St4lessIS5_ESaISt4pairIKS5_S5_EEED1Ev
	j	.L209
.L216:
	mv	s1,a0
.L209:
	addi	a5,s0,-344
	mv	a0,a5
	call	_ZNSt3mapINSt7__cxx1112basic_stringIcSt11char_traitsIcESaIcEEES5_St4lessIS5_ESaISt4pairIKS5_S5_EEED1Ev
	mv	a5,s1
	j	.L210
.L215:
	mv	a5,a0
.L210:
	mv	s1,a5
	j	.L205
.L212:
	mv	s1,a0
.L205:
	addi	a5,s0,-376
	mv	a0,a5
	call	_ZNSt7__cxx1112basic_stringIcSt11char_traitsIcESaIcEED1Ev
	mv	a5,s1
	mv	a0,a5
	call	_Unwind_Resume
.LEHE90:
.L220:
	mv	a0,a5
	ld	ra,408(sp)
	.cfi_restore 1
	ld	s0,400(sp)
	.cfi_restore 8
	.cfi_def_cfa 2, 416
	ld	s1,392(sp)
	.cfi_restore 9
	addi	sp,sp,416
	.cfi_def_cfa_offset 0
	jr	ra
	.cfi_endproc
.LFE2776:
	.section	.gcc_except_table
.LLSDA2776:
	.byte	0xff
	.byte	0xff
	.byte	0x3
	.byte	0xb6,0x1
	.4byte	.LEHB77-.LFB2776
	.4byte	.LEHE77-.LEHB77
	.4byte	0
	.byte	0
	.4byte	.LEHB78-.LFB2776
	.4byte	.LEHE78-.LEHB78
	.4byte	.L211-.LFB2776
	.byte	0
	.4byte	.LEHB79-.LFB2776
	.4byte	.LEHE79-.LEHB79
	.4byte	0
	.byte	0
	.4byte	.LEHB80-.LFB2776
	.4byte	.LEHE80-.LEHB80
	.4byte	.L212-.LFB2776
	.byte	0
	.4byte	.LEHB81-.LFB2776
	.4byte	.LEHE81-.LEHB81
	.4byte	.L213-.LFB2776
	.byte	0
	.4byte	.LEHB82-.LFB2776
	.4byte	.LEHE82-.LEHB82
	.4byte	.L214-.LFB2776
	.byte	0
	.4byte	.LEHB83-.LFB2776
	.4byte	.LEHE83-.LEHB83
	.4byte	.L212-.LFB2776
	.byte	0
	.4byte	.LEHB84-.LFB2776
	.4byte	.LEHE84-.LEHB84
	.4byte	.L215-.LFB2776
	.byte	0
	.4byte	.LEHB85-.LFB2776
	.4byte	.LEHE85-.LEHB85
	.4byte	.L216-.LFB2776
	.byte	0
	.4byte	.LEHB86-.LFB2776
	.4byte	.LEHE86-.LEHB86
	.4byte	.L217-.LFB2776
	.byte	0
	.4byte	.LEHB87-.LFB2776
	.4byte	.LEHE87-.LEHB87
	.4byte	.L218-.LFB2776
	.byte	0
	.4byte	.LEHB88-.LFB2776
	.4byte	.LEHE88-.LEHB88
	.4byte	.L219-.LFB2776
	.byte	0
	.4byte	.LEHB89-.LFB2776
	.4byte	.LEHE89-.LEHB89
	.4byte	.L212-.LFB2776
	.byte	0
	.4byte	.LEHB90-.LFB2776
	.4byte	.LEHE90-.LEHB90
	.4byte	0
	.byte	0
	.text
	.size	_Z4mpreRSt3mapINSt7__cxx1112basic_stringIcSt11char_traitsIcESaIcEEES_IiS_IS5_S5_St4lessIS5_ESaISt4pairIKS5_S5_EEES6_IiESaIS8_IKiSC_EEES7_SaIS8_IS9_SH_EEEPci, .-_Z4mpreRSt3mapINSt7__cxx1112basic_stringIcSt11char_traitsIcESaIcEEES_IiS_IS5_S5_St4lessIS5_ESaISt4pairIKS5_S5_EEES6_IiESaIS8_IKiSC_EEES7_SaIS8_IS9_SH_EEEPci
	.section	.text._ZN6TblockC2Ev,"axG",@progbits,_ZN6TblockC5Ev,comdat
	.align	1
	.weak	_ZN6TblockC2Ev
	.type	_ZN6TblockC2Ev, @function
_ZN6TblockC2Ev:
.LFB2780:
	.cfi_startproc
	addi	sp,sp,-32
	.cfi_def_cfa_offset 32
	sd	ra,24(sp)
	sd	s0,16(sp)
	.cfi_offset 1, -8
	.cfi_offset 8, -16
	addi	s0,sp,32
	.cfi_def_cfa 8, 0
	sd	a0,-24(s0)
	ld	a5,-24(s0)
	li	a1,0
	mv	a0,a5
	call	_ZNSt6bitsetILm8EEC1Ey
	ld	a5,-24(s0)
	addi	a5,a5,8
	li	a1,0
	mv	a0,a5
	call	_ZNSt6bitsetILm24EEC1Ey
	ld	a5,-24(s0)
	addi	a5,a5,16
	li	a1,0
	mv	a0,a5
	call	_ZNSt6bitsetILm32EEC1Ey
	nop
	ld	ra,24(sp)
	.cfi_restore 1
	ld	s0,16(sp)
	.cfi_restore 8
	.cfi_def_cfa 2, 32
	addi	sp,sp,32
	.cfi_def_cfa_offset 0
	jr	ra
	.cfi_endproc
.LFE2780:
	.size	_ZN6TblockC2Ev, .-_ZN6TblockC2Ev
	.weak	_ZN6TblockC1Ev
	.set	_ZN6TblockC1Ev,_ZN6TblockC2Ev
	.section	.text._ZNSt5stackI6TstairSt5dequeIS0_SaIS0_EEED2Ev,"axG",@progbits,_ZNSt5stackI6TstairSt5dequeIS0_SaIS0_EEED5Ev,comdat
	.align	1
	.weak	_ZNSt5stackI6TstairSt5dequeIS0_SaIS0_EEED2Ev
	.type	_ZNSt5stackI6TstairSt5dequeIS0_SaIS0_EEED2Ev, @function
_ZNSt5stackI6TstairSt5dequeIS0_SaIS0_EEED2Ev:
.LFB2783:
	.cfi_startproc
	addi	sp,sp,-32
	.cfi_def_cfa_offset 32
	sd	ra,24(sp)
	sd	s0,16(sp)
	.cfi_offset 1, -8
	.cfi_offset 8, -16
	addi	s0,sp,32
	.cfi_def_cfa 8, 0
	sd	a0,-24(s0)
	ld	a5,-24(s0)
	mv	a0,a5
	call	_ZNSt5dequeI6TstairSaIS0_EED1Ev
	nop
	ld	ra,24(sp)
	.cfi_restore 1
	ld	s0,16(sp)
	.cfi_restore 8
	.cfi_def_cfa 2, 32
	addi	sp,sp,32
	.cfi_def_cfa_offset 0
	jr	ra
	.cfi_endproc
.LFE2783:
	.size	_ZNSt5stackI6TstairSt5dequeIS0_SaIS0_EEED2Ev, .-_ZNSt5stackI6TstairSt5dequeIS0_SaIS0_EEED2Ev
	.weak	_ZNSt5stackI6TstairSt5dequeIS0_SaIS0_EEED1Ev
	.set	_ZNSt5stackI6TstairSt5dequeIS0_SaIS0_EEED1Ev,_ZNSt5stackI6TstairSt5dequeIS0_SaIS0_EEED2Ev
	.section	.rodata
	.align	3
.LC31:
	.string	"bmf.bin"
	.align	3
.LC32:
	.string	"\320\236\320\250\320\230\320\221\320\232\320\220 \320\277\320\276\320\264\320\272\320\273\321\216\321\207\320\265\320\275\320\270\321\217 \321\204\320\260\320\271\320\273\320\260"
	.section	.text._ZN7BimorphC2Ev,"axG",@progbits,_ZN7BimorphC5Ev,comdat
	.align	1
	.weak	_ZN7BimorphC2Ev
	.type	_ZN7BimorphC2Ev, @function
_ZN7BimorphC2Ev:
.LFB2785:
	.cfi_startproc
	.cfi_personality 0x9b,DW.ref.__gxx_personality_v0
	.cfi_lsda 0x1b,.LLSDA2785
	addi	sp,sp,-96
	.cfi_def_cfa_offset 96
	sd	ra,88(sp)
	sd	s0,80(sp)
	sd	s1,72(sp)
	.cfi_offset 1, -8
	.cfi_offset 8, -16
	.cfi_offset 9, -24
	addi	s0,sp,96
	.cfi_def_cfa 8, 0
	sd	a0,-88(s0)
	ld	s1,-88(s0)
	addi	a5,s0,-80
	mv	a0,a5
	call	_ZNSaIcEC1Ev
	addi	a5,s0,-80
	mv	a2,a5
	lui	a5,%hi(.LC31)
	addi	a1,a5,%lo(.LC31)
	mv	a0,s1
.LEHB91:
	call	_ZNSt7__cxx1112basic_stringIcSt11char_traitsIcESaIcEEC1EPKcRKS3_
.LEHE91:
	addi	a5,s0,-80
	mv	a0,a5
	call	_ZNSaIcED1Ev
	ld	a5,-88(s0)
	sd	zero,32(a5)
	ld	a5,-88(s0)
	addi	a5,a5,48
	li	a1,0
	mv	a0,a5
	call	_ZNSt6bitsetILm32EEC1Ey
	ld	a5,-88(s0)
	addi	a4,a5,56
	li	a5,8192
	addi	a5,a5,-2048
	mv	a2,a5
	li	a1,0
	mv	a0,a4
	call	memset
	ld	a4,-88(s0)
	li	a5,8192
	addi	a5,a5,-1992
	add	a5,a4,a5
	li	a1,0
	mv	a0,a5
	call	_ZNSt6bitsetILm8EEC1Ey
	ld	a4,-88(s0)
	li	a5,8192
	addi	a5,a5,-1984
	add	a5,a4,a5
	mv	a0,a5
	call	_ZN6TblockC1Ev
	ld	a4,-88(s0)
	li	a5,8192
	addi	a5,a5,-1960
	add	a5,a4,a5
	mv	a0,a5
.LEHB92:
	call	_ZNSt5stackI6TstairSt5dequeIS0_SaIS0_EEEC1IS3_vEEv
.LEHE92:
	ld	a0,-88(s0)
.LEHB93:
	call	_ZN7Bimorph4FileEv
.LEHE93:
	mv	a5,a0
	xori	a5,a5,1
	andi	a5,a5,0xff
	beq	a5,zero,.L235
	addi	a5,s0,-40
	mv	a0,a5
	call	_ZNSaIcEC1Ev
	addi	a5,s0,-40
	addi	a4,s0,-72
	mv	a2,a5
	lui	a5,%hi(.LC32)
	addi	a1,a5,%lo(.LC32)
	mv	a0,a4
.LEHB94:
	call	_ZNSt7__cxx1112basic_stringIcSt11char_traitsIcESaIcEEC1EPKcRKS3_
.LEHE94:
	addi	a5,s0,-72
	li	a1,49
	mv	a0,a5
.LEHB95:
	call	_Z4mpreNSt7__cxx1112basic_stringIcSt11char_traitsIcESaIcEEEi
.LEHE95:
	addi	a5,s0,-72
	mv	a0,a5
	call	_ZNSt7__cxx1112basic_stringIcSt11char_traitsIcESaIcEED1Ev
	addi	a5,s0,-40
	mv	a0,a5
	call	_ZNSaIcED1Ev
	j	.L235
.L230:
	mv	s1,a0
	addi	a5,s0,-80
	mv	a0,a5
	call	_ZNSaIcED1Ev
	mv	a5,s1
	mv	a0,a5
.LEHB96:
	call	_Unwind_Resume
.L234:
	mv	s1,a0
	addi	a5,s0,-72
	mv	a0,a5
	call	_ZNSt7__cxx1112basic_stringIcSt11char_traitsIcESaIcEED1Ev
	j	.L227
.L233:
	mv	s1,a0
.L227:
	addi	a5,s0,-40
	mv	a0,a5
	call	_ZNSaIcED1Ev
	j	.L228
.L232:
	mv	s1,a0
.L228:
	ld	a4,-88(s0)
	li	a5,8192
	addi	a5,a5,-1960
	add	a5,a4,a5
	mv	a0,a5
	call	_ZNSt5stackI6TstairSt5dequeIS0_SaIS0_EEED1Ev
	j	.L229
.L231:
	mv	s1,a0
.L229:
	ld	a5,-88(s0)
	mv	a0,a5
	call	_ZNSt7__cxx1112basic_stringIcSt11char_traitsIcESaIcEED1Ev
	mv	a5,s1
	mv	a0,a5
	call	_Unwind_Resume
.LEHE96:
.L235:
	nop
	ld	ra,88(sp)
	.cfi_restore 1
	ld	s0,80(sp)
	.cfi_restore 8
	.cfi_def_cfa 2, 96
	ld	s1,72(sp)
	.cfi_restore 9
	addi	sp,sp,96
	.cfi_def_cfa_offset 0
	jr	ra
	.cfi_endproc
.LFE2785:
	.section	.gcc_except_table
.LLSDA2785:
	.byte	0xff
	.byte	0xff
	.byte	0x3
	.byte	0x4e
	.4byte	.LEHB91-.LFB2785
	.4byte	.LEHE91-.LEHB91
	.4byte	.L230-.LFB2785
	.byte	0
	.4byte	.LEHB92-.LFB2785
	.4byte	.LEHE92-.LEHB92
	.4byte	.L231-.LFB2785
	.byte	0
	.4byte	.LEHB93-.LFB2785
	.4byte	.LEHE93-.LEHB93
	.4byte	.L232-.LFB2785
	.byte	0
	.4byte	.LEHB94-.LFB2785
	.4byte	.LEHE94-.LEHB94
	.4byte	.L233-.LFB2785
	.byte	0
	.4byte	.LEHB95-.LFB2785
	.4byte	.LEHE95-.LEHB95
	.4byte	.L234-.LFB2785
	.byte	0
	.4byte	.LEHB96-.LFB2785
	.4byte	.LEHE96-.LEHB96
	.4byte	0
	.byte	0
	.section	.text._ZN7BimorphC2Ev,"axG",@progbits,_ZN7BimorphC5Ev,comdat
	.size	_ZN7BimorphC2Ev, .-_ZN7BimorphC2Ev
	.weak	_ZN7BimorphC1Ev
	.set	_ZN7BimorphC1Ev,_ZN7BimorphC2Ev
	.section	.rodata
	.align	3
.LC33:
	.string	"\320\236\320\250\320\230\320\221\320\232\320\220 \321\201\321\202\320\265\320\272 \320\275\320\265 \320\277\321\203\321\201\321\202"
	.align	3
.LC34:
	.string	"\320\236\320\250\320\230\320\221\320\232\320\220 \321\200\320\260\321\201\321\207\320\265\321\202\320\260 \321\201\320\273\320\265\320\264\321\203\321\216\321\211\320\265\320\263\320\276 \320\260\320\264\321\200\320\265\321\201\320\260"
	.align	3
.LC35:
	.string	"\320\236\320\250\320\230\320\221\320\232\320\220 \321\203\321\201\321\202\320\260\320\275\320\276\320\262\320\272\320\270 \320\260\320\264\321\200\320\265\321\201\320\260 \321\201\321\202\321\203\320\277\320\265\320\275\320\270"
	.align	3
.LC36:
	.string	"\320\236\320\250\320\230\320\221\320\232\320\220 \321\203\321\201\321\202\320\260\320\275\320\276\320\262\320\272\320\270 \321\201\320\274\320\265\321\211\320\265\320\275\320\270\321\217 \321\201\321\202\321\203\320\277\320\265\320\275\320\270"
	.align	3
.LC37:
	.string	"\320\243\321\201\321\202\320\260\320\275\320\276\320\262\320\272\320\260 \321\202\321\200\320\265\320\261\320\276\320\262\320\260\320\275\320\270\320\271 \320\272 \320\275\320\270\320\266\320\265\321\201\321\202\320\276\321\217\321\211\320\265\320\271"
	.align	3
.LC38:
	.string	"\320\236\320\250\320\230\320\221\320\232\320\220 \321\203\321\201\321\202\320\260\320\275\320\276\320\262\320\272\320\270 \320\274\320\276\321\200\321\204\320\260 \321\201\321\202\321\203\320\277\320\265\320\275\320\270"
	.align	3
.LC39:
	.string	"\320\236\320\250\320\230\320\221\320\232\320\220 \321\203\321\201\321\202\320\260\320\275\320\276\320\262\320\272\320\270 \320\277\320\265\321\200\320\262\320\276\320\275\320\260\321\207\320\260\320\273\320\275\320\276\320\271 \321\201\321\202\321\203\320\277\320\265\320\275\320\270"
	.section	.text._ZZN7Bimorph3ValEiENKUlvE_clEv,"axG",@progbits,_ZZN7Bimorph3ValEiENKUlvE_clEv,comdat
	.align	1
	.weak	_ZZN7Bimorph3ValEiENKUlvE_clEv
	.type	_ZZN7Bimorph3ValEiENKUlvE_clEv, @function
_ZZN7Bimorph3ValEiENKUlvE_clEv:
.LFB2788:
	.cfi_startproc
	.cfi_personality 0x9b,DW.ref.__gxx_personality_v0
	.cfi_lsda 0x1b,.LLSDA2788
	addi	sp,sp,-448
	.cfi_def_cfa_offset 448
	sd	ra,440(sp)
	sd	s0,432(sp)
	sd	s1,424(sp)
	.cfi_offset 1, -8
	.cfi_offset 8, -16
	.cfi_offset 9, -24
	addi	s0,sp,448
	.cfi_def_cfa 8, 0
	sd	a0,-440(s0)
	sd	zero,-424(s0)
	sd	zero,-416(s0)
	sd	zero,-408(s0)
	sd	zero,-432(s0)
	ld	a5,-440(s0)
	ld	a4,0(a5)
	li	a5,8192
	addi	a5,a5,-1960
	add	a5,a4,a5
	mv	a0,a5
	call	_ZNKSt5stackI6TstairSt5dequeIS0_SaIS0_EEE4sizeEv
	mv	a5,a0
	snez	a5,a5
	andi	a5,a5,0xff
	beq	a5,zero,.L237
	addi	a5,s0,-368
	mv	a0,a5
	call	_ZNSaIcEC1Ev
	addi	a5,s0,-368
	addi	a4,s0,-400
	mv	a2,a5
	lui	a5,%hi(.LC33)
	addi	a1,a5,%lo(.LC33)
	mv	a0,a4
.LEHB97:
	call	_ZNSt7__cxx1112basic_stringIcSt11char_traitsIcESaIcEEC1EPKcRKS3_
.LEHE97:
	addi	a5,s0,-400
	li	a1,57
	mv	a0,a5
.LEHB98:
	call	_Z4mpreNSt7__cxx1112basic_stringIcSt11char_traitsIcESaIcEEEi
.LEHE98:
	addi	a5,s0,-400
	mv	a0,a5
	call	_ZNSt7__cxx1112basic_stringIcSt11char_traitsIcESaIcEED1Ev
	addi	a5,s0,-368
	mv	a0,a5
	call	_ZNSaIcED1Ev
	j	.L238
.L237:
	ld	a5,-440(s0)
	ld	a5,0(a5)
	li	a1,0
	mv	a0,a5
.LEHB99:
	call	_ZN7Bimorph4AddrEb
.LEHE99:
	mv	a5,a0
	seqz	a5,a5
	andi	a5,a5,0xff
	beq	a5,zero,.L239
	addi	a5,s0,-328
	mv	a0,a5
	call	_ZNSaIcEC1Ev
	addi	a5,s0,-328
	addi	a4,s0,-360
	mv	a2,a5
	lui	a5,%hi(.LC34)
	addi	a1,a5,%lo(.LC34)
	mv	a0,a4
.LEHB100:
	call	_ZNSt7__cxx1112basic_stringIcSt11char_traitsIcESaIcEEC1EPKcRKS3_
.LEHE100:
	addi	a5,s0,-360
	li	a1,58
	mv	a0,a5
.LEHB101:
	call	_Z4mpreNSt7__cxx1112basic_stringIcSt11char_traitsIcESaIcEEEi
.LEHE101:
	addi	a5,s0,-360
	mv	a0,a5
	call	_ZNSt7__cxx1112basic_stringIcSt11char_traitsIcESaIcEED1Ev
	addi	a5,s0,-328
	mv	a0,a5
	call	_ZNSaIcED1Ev
	j	.L238
.L239:
	addi	a5,s0,-424
	sd	a5,-320(s0)
	ld	a5,-440(s0)
	ld	a5,0(a5)
	sd	a5,-312(s0)
	addi	a5,s0,-320
	mv	a0,a5
	call	_ZZZN7Bimorph3ValEiENKUlvE_clEvENKUlvE_clEv
	mv	a5,a0
	beq	a5,zero,.L240
	addi	a5,s0,-272
	mv	a0,a5
	call	_ZNSaIcEC1Ev
	addi	a5,s0,-272
	addi	a4,s0,-304
	mv	a2,a5
	lui	a5,%hi(.LC35)
	addi	a1,a5,%lo(.LC35)
	mv	a0,a4
.LEHB102:
	call	_ZNSt7__cxx1112basic_stringIcSt11char_traitsIcESaIcEEC1EPKcRKS3_
.LEHE102:
	addi	a5,s0,-304
	li	a1,59
	mv	a0,a5
.LEHB103:
	call	_Z4mpreNSt7__cxx1112basic_stringIcSt11char_traitsIcESaIcEEEi
.LEHE103:
	addi	a5,s0,-304
	mv	a0,a5
	call	_ZNSt7__cxx1112basic_stringIcSt11char_traitsIcESaIcEED1Ev
	addi	a5,s0,-272
	mv	a0,a5
	call	_ZNSaIcED1Ev
	j	.L238
.L240:
	addi	a5,s0,-424
	sd	a5,-264(s0)
	ld	a5,-440(s0)
	ld	a5,0(a5)
	sd	a5,-256(s0)
	addi	a5,s0,-264
	mv	a0,a5
	call	_ZZZN7Bimorph3ValEiENKUlvE_clEvENKUlvE0_clEv
	mv	a5,a0
	beq	a5,zero,.L241
	addi	a5,s0,-216
	mv	a0,a5
	call	_ZNSaIcEC1Ev
	addi	a5,s0,-216
	addi	a4,s0,-248
	mv	a2,a5
	lui	a5,%hi(.LC36)
	addi	a1,a5,%lo(.LC36)
	mv	a0,a4
.LEHB104:
	call	_ZNSt7__cxx1112basic_stringIcSt11char_traitsIcESaIcEEC1EPKcRKS3_
.LEHE104:
	addi	a5,s0,-248
	li	a1,60
	mv	a0,a5
.LEHB105:
	call	_Z4mpreNSt7__cxx1112basic_stringIcSt11char_traitsIcESaIcEEEi
.LEHE105:
	addi	a5,s0,-248
	mv	a0,a5
	call	_ZNSt7__cxx1112basic_stringIcSt11char_traitsIcESaIcEED1Ev
	addi	a5,s0,-216
	mv	a0,a5
	call	_ZNSaIcED1Ev
	j	.L238
.L241:
	addi	a5,s0,-432
	sd	a5,-208(s0)
	ld	a5,-440(s0)
	ld	a5,0(a5)
	sd	a5,-200(s0)
	ld	a5,-440(s0)
	ld	a5,8(a5)
	sd	a5,-192(s0)
	addi	a5,s0,-208
	mv	a0,a5
.LEHB106:
	call	_ZZZN7Bimorph3ValEiENKUlvE_clEvENKUlvE1_clEv
.LEHE106:
	mv	a5,a0
	beq	a5,zero,.L242
	addi	a5,s0,-152
	mv	a0,a5
	call	_ZNSaIcEC1Ev
	addi	a5,s0,-152
	addi	a4,s0,-184
	mv	a2,a5
	lui	a5,%hi(.LC37)
	addi	a1,a5,%lo(.LC37)
	mv	a0,a4
.LEHB107:
	call	_ZNSt7__cxx1112basic_stringIcSt11char_traitsIcESaIcEEC1EPKcRKS3_
.LEHE107:
	addi	a5,s0,-184
	li	a1,66
	mv	a0,a5
.LEHB108:
	call	_Z4mpreNSt7__cxx1112basic_stringIcSt11char_traitsIcESaIcEEEi
.LEHE108:
	addi	a5,s0,-184
	mv	a0,a5
	call	_ZNSt7__cxx1112basic_stringIcSt11char_traitsIcESaIcEED1Ev
	addi	a5,s0,-152
	mv	a0,a5
	call	_ZNSaIcED1Ev
	j	.L238
.L242:
	addi	a5,s0,-424
	sd	a5,-144(s0)
	addi	a5,s0,-432
	sd	a5,-136(s0)
	addi	a5,s0,-144
	mv	a0,a5
	call	_ZZZN7Bimorph3ValEiENKUlvE_clEvENKUlvE2_clEv
	mv	a5,a0
	beq	a5,zero,.L243
	addi	a5,s0,-96
	mv	a0,a5
	call	_ZNSaIcEC1Ev
	addi	a5,s0,-96
	addi	a4,s0,-128
	mv	a2,a5
	lui	a5,%hi(.LC38)
	addi	a1,a5,%lo(.LC38)
	mv	a0,a4
.LEHB109:
	call	_ZNSt7__cxx1112basic_stringIcSt11char_traitsIcESaIcEEC1EPKcRKS3_
.LEHE109:
	addi	a5,s0,-128
	li	a1,67
	mv	a0,a5
.LEHB110:
	call	_Z4mpreNSt7__cxx1112basic_stringIcSt11char_traitsIcESaIcEEEi
.LEHE110:
	addi	a5,s0,-128
	mv	a0,a5
	call	_ZNSt7__cxx1112basic_stringIcSt11char_traitsIcESaIcEED1Ev
	addi	a5,s0,-96
	mv	a0,a5
	call	_ZNSaIcED1Ev
	j	.L238
.L243:
	ld	a5,-440(s0)
	ld	a5,0(a5)
	sd	a5,-88(s0)
	addi	a5,s0,-424
	sd	a5,-80(s0)
	addi	a5,s0,-88
	mv	a0,a5
.LEHB111:
	call	_ZZZN7Bimorph3ValEiENKUlvE_clEvENKUlvE3_clEv
.LEHE111:
	mv	a5,a0
	beq	a5,zero,.L238
	addi	a5,s0,-40
	mv	a0,a5
	call	_ZNSaIcEC1Ev
	addi	a5,s0,-40
	addi	a4,s0,-72
	mv	a2,a5
	lui	a5,%hi(.LC39)
	addi	a1,a5,%lo(.LC39)
	mv	a0,a4
.LEHB112:
	call	_ZNSt7__cxx1112basic_stringIcSt11char_traitsIcESaIcEEC1EPKcRKS3_
.LEHE112:
	addi	a5,s0,-72
	li	a1,68
	mv	a0,a5
.LEHB113:
	call	_Z4mpreNSt7__cxx1112basic_stringIcSt11char_traitsIcESaIcEEEi
.LEHE113:
	addi	a5,s0,-72
	mv	a0,a5
	call	_ZNSt7__cxx1112basic_stringIcSt11char_traitsIcESaIcEED1Ev
	addi	a5,s0,-40
	mv	a0,a5
	call	_ZNSaIcED1Ev
.L238:
	addi	a5,s0,-424
	addi	a5,a5,8
	mv	a0,a5
	call	_ZNKSt6bitsetILm8EE4noneEv
	mv	a5,a0
	j	.L273
.L260:
	mv	s1,a0
	addi	a5,s0,-400
	mv	a0,a5
	call	_ZNSt7__cxx1112basic_stringIcSt11char_traitsIcESaIcEED1Ev
	j	.L246
.L259:
	mv	s1,a0
.L246:
	addi	a5,s0,-368
	mv	a0,a5
	call	_ZNSaIcED1Ev
	mv	a5,s1
	mv	a0,a5
.LEHB114:
	call	_Unwind_Resume
.L262:
	mv	s1,a0
	addi	a5,s0,-360
	mv	a0,a5
	call	_ZNSt7__cxx1112basic_stringIcSt11char_traitsIcESaIcEED1Ev
	j	.L248
.L261:
	mv	s1,a0
.L248:
	addi	a5,s0,-328
	mv	a0,a5
	call	_ZNSaIcED1Ev
	mv	a5,s1
	mv	a0,a5
	call	_Unwind_Resume
.L264:
	mv	s1,a0
	addi	a5,s0,-304
	mv	a0,a5
	call	_ZNSt7__cxx1112basic_stringIcSt11char_traitsIcESaIcEED1Ev
	j	.L250
.L263:
	mv	s1,a0
.L250:
	addi	a5,s0,-272
	mv	a0,a5
	call	_ZNSaIcED1Ev
	mv	a5,s1
	mv	a0,a5
	call	_Unwind_Resume
.L266:
	mv	s1,a0
	addi	a5,s0,-248
	mv	a0,a5
	call	_ZNSt7__cxx1112basic_stringIcSt11char_traitsIcESaIcEED1Ev
	j	.L252
.L265:
	mv	s1,a0
.L252:
	addi	a5,s0,-216
	mv	a0,a5
	call	_ZNSaIcED1Ev
	mv	a5,s1
	mv	a0,a5
	call	_Unwind_Resume
.L268:
	mv	s1,a0
	addi	a5,s0,-184
	mv	a0,a5
	call	_ZNSt7__cxx1112basic_stringIcSt11char_traitsIcESaIcEED1Ev
	j	.L254
.L267:
	mv	s1,a0
.L254:
	addi	a5,s0,-152
	mv	a0,a5
	call	_ZNSaIcED1Ev
	mv	a5,s1
	mv	a0,a5
	call	_Unwind_Resume
.L270:
	mv	s1,a0
	addi	a5,s0,-128
	mv	a0,a5
	call	_ZNSt7__cxx1112basic_stringIcSt11char_traitsIcESaIcEED1Ev
	j	.L256
.L269:
	mv	s1,a0
.L256:
	addi	a5,s0,-96
	mv	a0,a5
	call	_ZNSaIcED1Ev
	mv	a5,s1
	mv	a0,a5
	call	_Unwind_Resume
.L272:
	mv	s1,a0
	addi	a5,s0,-72
	mv	a0,a5
	call	_ZNSt7__cxx1112basic_stringIcSt11char_traitsIcESaIcEED1Ev
	j	.L258
.L271:
	mv	s1,a0
.L258:
	addi	a5,s0,-40
	mv	a0,a5
	call	_ZNSaIcED1Ev
	mv	a5,s1
	mv	a0,a5
	call	_Unwind_Resume
.LEHE114:
.L273:
	mv	a0,a5
	ld	ra,440(sp)
	.cfi_restore 1
	ld	s0,432(sp)
	.cfi_restore 8
	.cfi_def_cfa 2, 448
	ld	s1,424(sp)
	.cfi_restore 9
	addi	sp,sp,448
	.cfi_def_cfa_offset 0
	jr	ra
	.cfi_endproc
.LFE2788:
	.section	.gcc_except_table
.LLSDA2788:
	.byte	0xff
	.byte	0xff
	.byte	0x3
	.byte	0xea,0x1
	.4byte	.LEHB97-.LFB2788
	.4byte	.LEHE97-.LEHB97
	.4byte	.L259-.LFB2788
	.byte	0
	.4byte	.LEHB98-.LFB2788
	.4byte	.LEHE98-.LEHB98
	.4byte	.L260-.LFB2788
	.byte	0
	.4byte	.LEHB99-.LFB2788
	.4byte	.LEHE99-.LEHB99
	.4byte	0
	.byte	0
	.4byte	.LEHB100-.LFB2788
	.4byte	.LEHE100-.LEHB100
	.4byte	.L261-.LFB2788
	.byte	0
	.4byte	.LEHB101-.LFB2788
	.4byte	.LEHE101-.LEHB101
	.4byte	.L262-.LFB2788
	.byte	0
	.4byte	.LEHB102-.LFB2788
	.4byte	.LEHE102-.LEHB102
	.4byte	.L263-.LFB2788
	.byte	0
	.4byte	.LEHB103-.LFB2788
	.4byte	.LEHE103-.LEHB103
	.4byte	.L264-.LFB2788
	.byte	0
	.4byte	.LEHB104-.LFB2788
	.4byte	.LEHE104-.LEHB104
	.4byte	.L265-.LFB2788
	.byte	0
	.4byte	.LEHB105-.LFB2788
	.4byte	.LEHE105-.LEHB105
	.4byte	.L266-.LFB2788
	.byte	0
	.4byte	.LEHB106-.LFB2788
	.4byte	.LEHE106-.LEHB106
	.4byte	0
	.byte	0
	.4byte	.LEHB107-.LFB2788
	.4byte	.LEHE107-.LEHB107
	.4byte	.L267-.LFB2788
	.byte	0
	.4byte	.LEHB108-.LFB2788
	.4byte	.LEHE108-.LEHB108
	.4byte	.L268-.LFB2788
	.byte	0
	.4byte	.LEHB109-.LFB2788
	.4byte	.LEHE109-.LEHB109
	.4byte	.L269-.LFB2788
	.byte	0
	.4byte	.LEHB110-.LFB2788
	.4byte	.LEHE110-.LEHB110
	.4byte	.L270-.LFB2788
	.byte	0
	.4byte	.LEHB111-.LFB2788
	.4byte	.LEHE111-.LEHB111
	.4byte	0
	.byte	0
	.4byte	.LEHB112-.LFB2788
	.4byte	.LEHE112-.LEHB112
	.4byte	.L271-.LFB2788
	.byte	0
	.4byte	.LEHB113-.LFB2788
	.4byte	.LEHE113-.LEHB113
	.4byte	.L272-.LFB2788
	.byte	0
	.4byte	.LEHB114-.LFB2788
	.4byte	.LEHE114-.LEHB114
	.4byte	0
	.byte	0
	.section	.text._ZZN7Bimorph3ValEiENKUlvE_clEv,"axG",@progbits,_ZZN7Bimorph3ValEiENKUlvE_clEv,comdat
	.size	_ZZN7Bimorph3ValEiENKUlvE_clEv, .-_ZZN7Bimorph3ValEiENKUlvE_clEv
	.section	.text._ZNSt6bitsetILm8EEC1Ey,"axG",@progbits,_ZNSt6bitsetILm8EEC1Ey,comdat
	.align	1
	.weak	_ZNSt6bitsetILm8EEC1Ey
	.type	_ZNSt6bitsetILm8EEC1Ey, @function
_ZNSt6bitsetILm8EEC1Ey:
.LFB2794:
	.cfi_startproc
	addi	sp,sp,-48
	.cfi_def_cfa_offset 48
	sd	ra,40(sp)
	sd	s0,32(sp)
	sd	s1,24(sp)
	.cfi_offset 1, -8
	.cfi_offset 8, -16
	.cfi_offset 9, -24
	addi	s0,sp,48
	.cfi_def_cfa 8, 0
	sd	a0,-40(s0)
	sd	a1,-48(s0)
	ld	s1,-40(s0)
	ld	a0,-48(s0)
	call	_ZNSt13_Sanitize_valILm8ELb1EE18_S_do_sanitize_valEy
	mv	a5,a0
	mv	a1,a5
	mv	a0,s1
	call	_ZNSt12_Base_bitsetILm1EEC2Ey
	nop
	ld	ra,40(sp)
	.cfi_restore 1
	ld	s0,32(sp)
	.cfi_restore 8
	.cfi_def_cfa 2, 48
	ld	s1,24(sp)
	.cfi_restore 9
	addi	sp,sp,48
	.cfi_def_cfa_offset 0
	jr	ra
	.cfi_endproc
.LFE2794:
	.size	_ZNSt6bitsetILm8EEC1Ey, .-_ZNSt6bitsetILm8EEC1Ey
	.section	.text._ZNSt13_Sanitize_valILm8ELb1EE18_S_do_sanitize_valEy,"axG",@progbits,_ZNSt13_Sanitize_valILm8ELb1EE18_S_do_sanitize_valEy,comdat
	.align	1
	.weak	_ZNSt13_Sanitize_valILm8ELb1EE18_S_do_sanitize_valEy
	.type	_ZNSt13_Sanitize_valILm8ELb1EE18_S_do_sanitize_valEy, @function
_ZNSt13_Sanitize_valILm8ELb1EE18_S_do_sanitize_valEy:
.LFB2795:
	.cfi_startproc
	addi	sp,sp,-32
	.cfi_def_cfa_offset 32
	sd	s0,24(sp)
	.cfi_offset 8, -8
	addi	s0,sp,32
	.cfi_def_cfa 8, 0
	sd	a0,-24(s0)
	ld	a5,-24(s0)
	andi	a5,a5,255
	mv	a0,a5
	ld	s0,24(sp)
	.cfi_restore 8
	.cfi_def_cfa 2, 32
	addi	sp,sp,32
	.cfi_def_cfa_offset 0
	jr	ra
	.cfi_endproc
.LFE2795:
	.size	_ZNSt13_Sanitize_valILm8ELb1EE18_S_do_sanitize_valEy, .-_ZNSt13_Sanitize_valILm8ELb1EE18_S_do_sanitize_valEy
	.section	.text._ZNSt6bitsetILm32EEC1Ey,"axG",@progbits,_ZNSt6bitsetILm32EEC1Ey,comdat
	.align	1
	.weak	_ZNSt6bitsetILm32EEC1Ey
	.type	_ZNSt6bitsetILm32EEC1Ey, @function
_ZNSt6bitsetILm32EEC1Ey:
.LFB2798:
	.cfi_startproc
	addi	sp,sp,-48
	.cfi_def_cfa_offset 48
	sd	ra,40(sp)
	sd	s0,32(sp)
	sd	s1,24(sp)
	.cfi_offset 1, -8
	.cfi_offset 8, -16
	.cfi_offset 9, -24
	addi	s0,sp,48
	.cfi_def_cfa 8, 0
	sd	a0,-40(s0)
	sd	a1,-48(s0)
	ld	s1,-40(s0)
	ld	a0,-48(s0)
	call	_ZNSt13_Sanitize_valILm32ELb1EE18_S_do_sanitize_valEy
	mv	a5,a0
	mv	a1,a5
	mv	a0,s1
	call	_ZNSt12_Base_bitsetILm1EEC2Ey
	nop
	ld	ra,40(sp)
	.cfi_restore 1
	ld	s0,32(sp)
	.cfi_restore 8
	.cfi_def_cfa 2, 48
	ld	s1,24(sp)
	.cfi_restore 9
	addi	sp,sp,48
	.cfi_def_cfa_offset 0
	jr	ra
	.cfi_endproc
.LFE2798:
	.size	_ZNSt6bitsetILm32EEC1Ey, .-_ZNSt6bitsetILm32EEC1Ey
	.section	.text._ZNSt13_Sanitize_valILm32ELb1EE18_S_do_sanitize_valEy,"axG",@progbits,_ZNSt13_Sanitize_valILm32ELb1EE18_S_do_sanitize_valEy,comdat
	.align	1
	.weak	_ZNSt13_Sanitize_valILm32ELb1EE18_S_do_sanitize_valEy
	.type	_ZNSt13_Sanitize_valILm32ELb1EE18_S_do_sanitize_valEy, @function
_ZNSt13_Sanitize_valILm32ELb1EE18_S_do_sanitize_valEy:
.LFB2799:
	.cfi_startproc
	addi	sp,sp,-32
	.cfi_def_cfa_offset 32
	sd	s0,24(sp)
	.cfi_offset 8, -8
	addi	s0,sp,32
	.cfi_def_cfa 8, 0
	sd	a0,-24(s0)
	ld	a4,-24(s0)
	li	a5,-1
	srli	a5,a5,32
	and	a5,a4,a5
	mv	a0,a5
	ld	s0,24(sp)
	.cfi_restore 8
	.cfi_def_cfa 2, 32
	addi	sp,sp,32
	.cfi_def_cfa_offset 0
	jr	ra
	.cfi_endproc
.LFE2799:
	.size	_ZNSt13_Sanitize_valILm32ELb1EE18_S_do_sanitize_valEy, .-_ZNSt13_Sanitize_valILm32ELb1EE18_S_do_sanitize_valEy
	.section	.text._ZZZN7Bimorph3ValEiENKUlvE_clEvENKUlvE_clEv,"axG",@progbits,_ZZZN7Bimorph3ValEiENKUlvE_clEvENKUlvE_clEv,comdat
	.align	1
	.weak	_ZZZN7Bimorph3ValEiENKUlvE_clEvENKUlvE_clEv
	.type	_ZZZN7Bimorph3ValEiENKUlvE_clEvENKUlvE_clEv, @function
_ZZZN7Bimorph3ValEiENKUlvE_clEvENKUlvE_clEv:
.LFB2803:
	.cfi_startproc
	addi	sp,sp,-32
	.cfi_def_cfa_offset 32
	sd	s0,24(sp)
	.cfi_offset 8, -8
	addi	s0,sp,32
	.cfi_def_cfa 8, 0
	sd	a0,-24(s0)
	ld	a5,-24(s0)
	ld	a3,8(a5)
	ld	a5,-24(s0)
	ld	a5,0(a5)
	li	a4,8192
	add	a4,a3,a4
	ld	a4,-1992(a4)
	sd	a4,8(a5)
	li	a5,0
	mv	a0,a5
	ld	s0,24(sp)
	.cfi_restore 8
	.cfi_def_cfa 2, 32
	addi	sp,sp,32
	.cfi_def_cfa_offset 0
	jr	ra
	.cfi_endproc
.LFE2803:
	.size	_ZZZN7Bimorph3ValEiENKUlvE_clEvENKUlvE_clEv, .-_ZZZN7Bimorph3ValEiENKUlvE_clEvENKUlvE_clEv
	.section	.text._ZZZN7Bimorph3ValEiENKUlvE_clEvENKUlvE0_clEv,"axG",@progbits,_ZZZN7Bimorph3ValEiENKUlvE_clEvENKUlvE0_clEv,comdat
	.align	1
	.weak	_ZZZN7Bimorph3ValEiENKUlvE_clEvENKUlvE0_clEv
	.type	_ZZZN7Bimorph3ValEiENKUlvE_clEvENKUlvE0_clEv, @function
_ZZZN7Bimorph3ValEiENKUlvE_clEvENKUlvE0_clEv:
.LFB2804:
	.cfi_startproc
	addi	sp,sp,-32
	.cfi_def_cfa_offset 32
	sd	s0,24(sp)
	.cfi_offset 8, -8
	addi	s0,sp,32
	.cfi_def_cfa 8, 0
	sd	a0,-24(s0)
	ld	a5,-24(s0)
	ld	a4,8(a5)
	ld	a5,-24(s0)
	ld	a5,0(a5)
	ld	a4,48(a4)
	sd	a4,16(a5)
	li	a5,0
	mv	a0,a5
	ld	s0,24(sp)
	.cfi_restore 8
	.cfi_def_cfa 2, 32
	addi	sp,sp,32
	.cfi_def_cfa_offset 0
	jr	ra
	.cfi_endproc
.LFE2804:
	.size	_ZZZN7Bimorph3ValEiENKUlvE_clEvENKUlvE0_clEv, .-_ZZZN7Bimorph3ValEiENKUlvE_clEvENKUlvE0_clEv
	.section	.rodata
	.align	3
.LC40:
	.string	"\320\241\320\276\321\205\321\200\320\260\320\275\320\265\320\275\320\270\320\265 \321\201\320\262\320\276\320\271\321\201\321\202\320\262 \320\274\320\276\321\200\321\204\320\260"
	.align	3
.LC41:
	.string	"\320\236\320\250\320\230\320\221\320\232\320\220 \321\203\321\201\321\202\320\260\320\275\320\276\320\262\320\272\320\270 \321\202\321\200\320\265\320\261\320\276\320\262\320\260\320\275\320\270\320\271"
	.align	3
.LC42:
	.string	"\320\242\321\200\320\265\320\261\320\276\320\262\320\260\320\275\320\270\321\217 \320\272 \320\275\320\270\320\266\320\265\321\201\321\202\320\276\321\217\321\211\320\265\320\274\321\203 \320\274\320\276\321\200\321\204\321\203 "
	.section	.text._ZZZN7Bimorph3ValEiENKUlvE_clEvENKUlvE1_clEv,"axG",@progbits,_ZZZN7Bimorph3ValEiENKUlvE_clEvENKUlvE1_clEv,comdat
	.align	1
	.weak	_ZZZN7Bimorph3ValEiENKUlvE_clEvENKUlvE1_clEv
	.type	_ZZZN7Bimorph3ValEiENKUlvE_clEvENKUlvE1_clEv, @function
_ZZZN7Bimorph3ValEiENKUlvE_clEvENKUlvE1_clEv:
.LFB2805:
	.cfi_startproc
	.cfi_personality 0x9b,DW.ref.__gxx_personality_v0
	.cfi_lsda 0x1b,.LLSDA2805
	addi	sp,sp,-224
	.cfi_def_cfa_offset 224
	sd	ra,216(sp)
	sd	s0,208(sp)
	sd	s1,200(sp)
	.cfi_offset 1, -8
	.cfi_offset 8, -16
	.cfi_offset 9, -24
	addi	s0,sp,224
	.cfi_def_cfa 8, 0
	sd	a0,-216(s0)
	ld	a5,-216(s0)
	ld	a5,0(a5)
	sd	a5,-208(s0)
	ld	a5,-216(s0)
	ld	a5,8(a5)
	sd	a5,-200(s0)
	addi	a5,s0,-208
	mv	a0,a5
	call	_ZZZZN7Bimorph3ValEiENKUlvE_clEvENKUlvE1_clEvENKUlvE_clEv
	mv	a5,a0
	beq	a5,zero,.L285
	addi	a5,s0,-160
	mv	a0,a5
	call	_ZNSaIcEC1Ev
	addi	a5,s0,-160
	addi	a4,s0,-192
	mv	a2,a5
	lui	a5,%hi(.LC40)
	addi	a1,a5,%lo(.LC40)
	mv	a0,a4
.LEHB115:
	call	_ZNSt7__cxx1112basic_stringIcSt11char_traitsIcESaIcEEC1EPKcRKS3_
.LEHE115:
	addi	a5,s0,-192
	li	a1,62
	mv	a0,a5
.LEHB116:
	call	_Z4mpreNSt7__cxx1112basic_stringIcSt11char_traitsIcESaIcEEEi
.LEHE116:
	addi	a5,s0,-192
	mv	a0,a5
	call	_ZNSt7__cxx1112basic_stringIcSt11char_traitsIcESaIcEED1Ev
	addi	a5,s0,-160
	mv	a0,a5
	call	_ZNSaIcED1Ev
	j	.L286
.L285:
	ld	a5,-216(s0)
	ld	a5,16(a5)
	lw	a5,0(a5)
	blt	a5,zero,.L286
	ld	a5,-216(s0)
	ld	a5,0(a5)
	sd	a5,-152(s0)
	ld	a5,-216(s0)
	ld	a5,16(a5)
	sd	a5,-144(s0)
	addi	a5,s0,-152
	mv	a0,a5
.LEHB117:
	call	_ZZZZN7Bimorph3ValEiENKUlvE_clEvENKUlvE1_clEvENKUlvE0_clEv
.LEHE117:
	mv	a5,a0
	beq	a5,zero,.L287
	addi	a5,s0,-104
	mv	a0,a5
	call	_ZNSaIcEC1Ev
	addi	a5,s0,-104
	addi	a4,s0,-136
	mv	a2,a5
	lui	a5,%hi(.LC41)
	addi	a1,a5,%lo(.LC41)
	mv	a0,a4
.LEHB118:
	call	_ZNSt7__cxx1112basic_stringIcSt11char_traitsIcESaIcEEC1EPKcRKS3_
.LEHE118:
	addi	a5,s0,-136
	li	a1,64
	mv	a0,a5
.LEHB119:
	call	_Z4mpreNSt7__cxx1112basic_stringIcSt11char_traitsIcESaIcEEEi
.LEHE119:
	addi	a5,s0,-136
	mv	a0,a5
	call	_ZNSt7__cxx1112basic_stringIcSt11char_traitsIcESaIcEED1Ev
	addi	a5,s0,-104
	mv	a0,a5
	call	_ZNSaIcED1Ev
	j	.L286
.L287:
	ld	a5,-216(s0)
	ld	a5,16(a5)
	lw	a4,0(a5)
	addi	a5,s0,-64
	mv	a1,a4
	mv	a0,a5
.LEHB120:
	call	_ZNSt7__cxx119to_stringEi
.LEHE120:
	addi	a4,s0,-96
	addi	a5,s0,-64
	mv	a2,a5
	lui	a5,%hi(.LC42)
	addi	a1,a5,%lo(.LC42)
	mv	a0,a4
.LEHB121:
	call	_ZStplIcSt11char_traitsIcESaIcEENSt7__cxx1112basic_stringIT_T0_T1_EEPKS5_OS8_
.LEHE121:
	addi	a5,s0,-96
	li	a1,65
	mv	a0,a5
.LEHB122:
	call	_Z4mpreNSt7__cxx1112basic_stringIcSt11char_traitsIcESaIcEEEi
.LEHE122:
	addi	a5,s0,-96
	mv	a0,a5
	call	_ZNSt7__cxx1112basic_stringIcSt11char_traitsIcESaIcEED1Ev
	addi	a5,s0,-64
	mv	a0,a5
	call	_ZNSt7__cxx1112basic_stringIcSt11char_traitsIcESaIcEED1Ev
.L286:
	li	a5,0
	j	.L301
.L296:
	mv	s1,a0
	addi	a5,s0,-192
	mv	a0,a5
	call	_ZNSt7__cxx1112basic_stringIcSt11char_traitsIcESaIcEED1Ev
	j	.L290
.L295:
	mv	s1,a0
.L290:
	addi	a5,s0,-160
	mv	a0,a5
	call	_ZNSaIcED1Ev
	mv	a5,s1
	mv	a0,a5
.LEHB123:
	call	_Unwind_Resume
.L298:
	mv	s1,a0
	addi	a5,s0,-136
	mv	a0,a5
	call	_ZNSt7__cxx1112basic_stringIcSt11char_traitsIcESaIcEED1Ev
	j	.L292
.L297:
	mv	s1,a0
.L292:
	addi	a5,s0,-104
	mv	a0,a5
	call	_ZNSaIcED1Ev
	mv	a5,s1
	mv	a0,a5
	call	_Unwind_Resume
.L300:
	mv	s1,a0
	addi	a5,s0,-96
	mv	a0,a5
	call	_ZNSt7__cxx1112basic_stringIcSt11char_traitsIcESaIcEED1Ev
	j	.L294
.L299:
	mv	s1,a0
.L294:
	addi	a5,s0,-64
	mv	a0,a5
	call	_ZNSt7__cxx1112basic_stringIcSt11char_traitsIcESaIcEED1Ev
	mv	a5,s1
	mv	a0,a5
	call	_Unwind_Resume
.LEHE123:
.L301:
	mv	a0,a5
	ld	ra,216(sp)
	.cfi_restore 1
	ld	s0,208(sp)
	.cfi_restore 8
	.cfi_def_cfa 2, 224
	ld	s1,200(sp)
	.cfi_restore 9
	addi	sp,sp,224
	.cfi_def_cfa_offset 0
	jr	ra
	.cfi_endproc
.LFE2805:
	.section	.gcc_except_table
.LLSDA2805:
	.byte	0xff
	.byte	0xff
	.byte	0x3
	.byte	0x75
	.4byte	.LEHB115-.LFB2805
	.4byte	.LEHE115-.LEHB115
	.4byte	.L295-.LFB2805
	.byte	0
	.4byte	.LEHB116-.LFB2805
	.4byte	.LEHE116-.LEHB116
	.4byte	.L296-.LFB2805
	.byte	0
	.4byte	.LEHB117-.LFB2805
	.4byte	.LEHE117-.LEHB117
	.4byte	0
	.byte	0
	.4byte	.LEHB118-.LFB2805
	.4byte	.LEHE118-.LEHB118
	.4byte	.L297-.LFB2805
	.byte	0
	.4byte	.LEHB119-.LFB2805
	.4byte	.LEHE119-.LEHB119
	.4byte	.L298-.LFB2805
	.byte	0
	.4byte	.LEHB120-.LFB2805
	.4byte	.LEHE120-.LEHB120
	.4byte	0
	.byte	0
	.4byte	.LEHB121-.LFB2805
	.4byte	.LEHE121-.LEHB121
	.4byte	.L299-.LFB2805
	.byte	0
	.4byte	.LEHB122-.LFB2805
	.4byte	.LEHE122-.LEHB122
	.4byte	.L300-.LFB2805
	.byte	0
	.4byte	.LEHB123-.LFB2805
	.4byte	.LEHE123-.LEHB123
	.4byte	0
	.byte	0
	.section	.text._ZZZN7Bimorph3ValEiENKUlvE_clEvENKUlvE1_clEv,"axG",@progbits,_ZZZN7Bimorph3ValEiENKUlvE_clEvENKUlvE1_clEv,comdat
	.size	_ZZZN7Bimorph3ValEiENKUlvE_clEvENKUlvE1_clEv, .-_ZZZN7Bimorph3ValEiENKUlvE_clEvENKUlvE1_clEv
	.section	.text._ZZZZN7Bimorph3ValEiENKUlvE_clEvENKUlvE1_clEvENKUlvE_clEv,"axG",@progbits,_ZZZZN7Bimorph3ValEiENKUlvE_clEvENKUlvE1_clEvENKUlvE_clEv,comdat
	.align	1
	.weak	_ZZZZN7Bimorph3ValEiENKUlvE_clEvENKUlvE1_clEvENKUlvE_clEv
	.type	_ZZZZN7Bimorph3ValEiENKUlvE_clEvENKUlvE1_clEvENKUlvE_clEv, @function
_ZZZZN7Bimorph3ValEiENKUlvE_clEvENKUlvE1_clEvENKUlvE_clEv:
.LFB2806:
	.cfi_startproc
	addi	sp,sp,-32
	.cfi_def_cfa_offset 32
	sd	s0,24(sp)
	.cfi_offset 8, -8
	addi	s0,sp,32
	.cfi_def_cfa 8, 0
	sd	a0,-24(s0)
	ld	a5,-24(s0)
	ld	a3,8(a5)
	ld	a5,-24(s0)
	ld	a5,0(a5)
	li	a4,8192
	add	a4,a3,a4
	ld	a4,-1984(a4)
	sd	a4,0(a5)
	li	a5,0
	mv	a0,a5
	ld	s0,24(sp)
	.cfi_restore 8
	.cfi_def_cfa 2, 32
	addi	sp,sp,32
	.cfi_def_cfa_offset 0
	jr	ra
	.cfi_endproc
.LFE2806:
	.size	_ZZZZN7Bimorph3ValEiENKUlvE_clEvENKUlvE1_clEvENKUlvE_clEv, .-_ZZZZN7Bimorph3ValEiENKUlvE_clEvENKUlvE1_clEvENKUlvE_clEv
	.section	.text._ZZZZN7Bimorph3ValEiENKUlvE_clEvENKUlvE1_clEvENKUlvE0_clEv,"axG",@progbits,_ZZZZN7Bimorph3ValEiENKUlvE_clEvENKUlvE1_clEvENKUlvE0_clEv,comdat
	.align	1
	.weak	_ZZZZN7Bimorph3ValEiENKUlvE_clEvENKUlvE1_clEvENKUlvE0_clEv
	.type	_ZZZZN7Bimorph3ValEiENKUlvE_clEvENKUlvE1_clEvENKUlvE0_clEv, @function
_ZZZZN7Bimorph3ValEiENKUlvE_clEvENKUlvE1_clEvENKUlvE0_clEv:
.LFB2807:
	.cfi_startproc
	addi	sp,sp,-32
	.cfi_def_cfa_offset 32
	sd	ra,24(sp)
	sd	s0,16(sp)
	.cfi_offset 1, -8
	.cfi_offset 8, -16
	addi	s0,sp,32
	.cfi_def_cfa 8, 0
	sd	a0,-24(s0)
	ld	a5,-24(s0)
	ld	a5,0(a5)
	li	a2,1
	li	a1,1
	mv	a0,a5
	call	_ZNSt6bitsetILm8EE3setEmb
	ld	a5,-24(s0)
	ld	a5,8(a5)
	lw	a5,0(a5)
	mv	a4,a5
	li	a5,1
	bne	a4,a5,.L305
	ld	a5,-24(s0)
	ld	a5,0(a5)
	li	a2,1
	li	a1,0
	mv	a0,a5
	call	_ZNSt6bitsetILm8EE3setEmb
	j	.L306
.L305:
	ld	a5,-24(s0)
	ld	a5,0(a5)
	li	a1,0
	mv	a0,a5
	call	_ZNSt6bitsetILm8EE5resetEm
.L306:
	ld	a5,-24(s0)
	ld	a5,0(a5)
	li	a1,1
	mv	a0,a5
	call	_ZNKSt6bitsetILm8EE4testEm
	mv	a5,a0
	xori	a5,a5,1
	andi	a5,a5,0xff
	mv	a0,a5
	ld	ra,24(sp)
	.cfi_restore 1
	ld	s0,16(sp)
	.cfi_restore 8
	.cfi_def_cfa 2, 32
	addi	sp,sp,32
	.cfi_def_cfa_offset 0
	jr	ra
	.cfi_endproc
.LFE2807:
	.size	_ZZZZN7Bimorph3ValEiENKUlvE_clEvENKUlvE1_clEvENKUlvE0_clEv, .-_ZZZZN7Bimorph3ValEiENKUlvE_clEvENKUlvE1_clEvENKUlvE0_clEv
	.section	.text._ZZZN7Bimorph3ValEiENKUlvE_clEvENKUlvE2_clEv,"axG",@progbits,_ZZZN7Bimorph3ValEiENKUlvE_clEvENKUlvE2_clEv,comdat
	.align	1
	.weak	_ZZZN7Bimorph3ValEiENKUlvE_clEvENKUlvE2_clEv
	.type	_ZZZN7Bimorph3ValEiENKUlvE_clEvENKUlvE2_clEv, @function
_ZZZN7Bimorph3ValEiENKUlvE_clEvENKUlvE2_clEv:
.LFB2808:
	.cfi_startproc
	addi	sp,sp,-32
	.cfi_def_cfa_offset 32
	sd	s0,24(sp)
	.cfi_offset 8, -8
	addi	s0,sp,32
	.cfi_def_cfa 8, 0
	sd	a0,-24(s0)
	ld	a5,-24(s0)
	ld	a4,8(a5)
	ld	a5,-24(s0)
	ld	a5,0(a5)
	ld	a4,0(a4)
	sd	a4,0(a5)
	li	a5,0
	mv	a0,a5
	ld	s0,24(sp)
	.cfi_restore 8
	.cfi_def_cfa 2, 32
	addi	sp,sp,32
	.cfi_def_cfa_offset 0
	jr	ra
	.cfi_endproc
.LFE2808:
	.size	_ZZZN7Bimorph3ValEiENKUlvE_clEvENKUlvE2_clEv, .-_ZZZN7Bimorph3ValEiENKUlvE_clEvENKUlvE2_clEv
	.section	.text._ZZZN7Bimorph3ValEiENKUlvE_clEvENKUlvE3_clEv,"axG",@progbits,_ZZZN7Bimorph3ValEiENKUlvE_clEvENKUlvE3_clEv,comdat
	.align	1
	.weak	_ZZZN7Bimorph3ValEiENKUlvE_clEvENKUlvE3_clEv
	.type	_ZZZN7Bimorph3ValEiENKUlvE_clEvENKUlvE3_clEv, @function
_ZZZN7Bimorph3ValEiENKUlvE_clEvENKUlvE3_clEv:
.LFB2809:
	.cfi_startproc
	addi	sp,sp,-32
	.cfi_def_cfa_offset 32
	sd	ra,24(sp)
	sd	s0,16(sp)
	.cfi_offset 1, -8
	.cfi_offset 8, -16
	addi	s0,sp,32
	.cfi_def_cfa 8, 0
	sd	a0,-24(s0)
	ld	a5,-24(s0)
	ld	a4,0(a5)
	li	a5,8192
	addi	a5,a5,-1960
	add	a4,a4,a5
	ld	a5,-24(s0)
	ld	a5,8(a5)
	mv	a1,a5
	mv	a0,a4
	call	_ZNSt5stackI6TstairSt5dequeIS0_SaIS0_EEE4pushERKS0_
	ld	a5,-24(s0)
	ld	a4,0(a5)
	li	a5,8192
	addi	a5,a5,-1960
	add	a5,a4,a5
	mv	a0,a5
	call	_ZNKSt5stackI6TstairSt5dequeIS0_SaIS0_EEE4sizeEv
	mv	a5,a0
	seqz	a5,a5
	andi	a5,a5,0xff
	mv	a0,a5
	ld	ra,24(sp)
	.cfi_restore 1
	ld	s0,16(sp)
	.cfi_restore 8
	.cfi_def_cfa 2, 32
	addi	sp,sp,32
	.cfi_def_cfa_offset 0
	jr	ra
	.cfi_endproc
.LFE2809:
	.size	_ZZZN7Bimorph3ValEiENKUlvE_clEvENKUlvE3_clEv, .-_ZZZN7Bimorph3ValEiENKUlvE_clEvENKUlvE3_clEv
	.section	.rodata
	.align	3
.LC43:
	.string	"\320\236\320\250\320\230\320\221\320\232\320\220 \320\262\321\213\320\261\320\276\321\200\320\272\320\270 \321\201\321\202\321\203\320\277\320\265\320\275\320\270"
	.align	3
.LC44:
	.string	"\320\236\320\250\320\230\320\221\320\232\320\220 \320\260\320\264\321\200\320\265\321\201 \320\275\320\265 \321\203\320\272\320\260\320\267\320\260\320\275"
	.align	3
.LC45:
	.string	"\320\236\320\250\320\230\320\221\320\232\320\220 \320\264\320\276\320\261\320\260\320\262\320\273\320\265\320\275\320\270\321\217 \320\275\320\276\320\262\320\276\320\263\320\276 \320\274\320\276\321\200\321\204\320\260"
	.align	3
.LC46:
	.string	"\320\240\320\260\321\201\321\207\320\265\321\202 \320\261\320\273\320\276\320\272\320\260 addr="
	.align	3
.LC47:
	.string	" stairs.size="
	.section	.text._ZZN7Bimorph3ValEiENKUlvE0_clEv,"axG",@progbits,_ZZN7Bimorph3ValEiENKUlvE0_clEv,comdat
	.align	1
	.weak	_ZZN7Bimorph3ValEiENKUlvE0_clEv
	.type	_ZZN7Bimorph3ValEiENKUlvE0_clEv, @function
_ZZN7Bimorph3ValEiENKUlvE0_clEv:
.LFB2810:
	.cfi_startproc
	.cfi_personality 0x9b,DW.ref.__gxx_personality_v0
	.cfi_lsda 0x1b,.LLSDA2810
	addi	sp,sp,-560
	.cfi_def_cfa_offset 560
	sd	ra,552(sp)
	sd	s0,544(sp)
	sd	s1,536(sp)
	.cfi_offset 1, -8
	.cfi_offset 8, -16
	.cfi_offset 9, -24
	addi	s0,sp,560
	.cfi_def_cfa 8, 0
	sd	a0,-520(s0)
	sw	zero,-36(s0)
	sd	zero,-464(s0)
	sd	zero,-456(s0)
	sd	zero,-448(s0)
.L320:
	ld	a5,-520(s0)
	ld	a4,0(a5)
	li	a5,8192
	addi	a5,a5,-1960
	add	a5,a4,a5
	mv	a0,a5
	call	_ZNKSt5stackI6TstairSt5dequeIS0_SaIS0_EEE4sizeEv
	mv	a5,a0
	beq	a5,zero,.L313
	lw	a5,-36(s0)
	addiw	a4,a5,1
	sw	a4,-36(s0)
	mv	a4,a5
	li	a5,2
	bgt	a4,a5,.L313
	li	a5,1
	j	.L314
.L313:
	li	a5,0
.L314:
	beq	a5,zero,.L315
	sd	zero,-488(s0)
	sd	zero,-480(s0)
	sd	zero,-472(s0)
	sd	zero,-512(s0)
	sd	zero,-504(s0)
	sd	zero,-496(s0)
	addi	a5,s0,-512
	sd	a5,-440(s0)
	ld	a5,-520(s0)
	ld	a5,0(a5)
	sd	a5,-432(s0)
	addi	a5,s0,-488
	sd	a5,-424(s0)
	addi	a5,s0,-440
	mv	a0,a5
.LEHB124:
	call	_ZZZN7Bimorph3ValEiENKUlvE0_clEvENKUlvE_clEv
.LEHE124:
	mv	a5,a0
	beq	a5,zero,.L316
	addi	a5,s0,-384
	mv	a0,a5
	call	_ZNSaIcEC1Ev
	addi	a5,s0,-384
	addi	a4,s0,-416
	mv	a2,a5
	lui	a5,%hi(.LC43)
	addi	a1,a5,%lo(.LC43)
	mv	a0,a4
.LEHB125:
	call	_ZNSt7__cxx1112basic_stringIcSt11char_traitsIcESaIcEEC1EPKcRKS3_
.LEHE125:
	addi	a5,s0,-416
	li	a1,74
	mv	a0,a5
.LEHB126:
	call	_Z4mpreNSt7__cxx1112basic_stringIcSt11char_traitsIcESaIcEEEi
.LEHE126:
	addi	a5,s0,-416
	mv	a0,a5
	call	_ZNSt7__cxx1112basic_stringIcSt11char_traitsIcESaIcEED1Ev
	addi	a5,s0,-384
	mv	a0,a5
	call	_ZNSaIcED1Ev
	j	.L320
.L316:
	addi	a5,s0,-512
	addi	a5,a5,8
	mv	a0,a5
	call	_ZNKSt6bitsetILm8EE4noneEv
	mv	a5,a0
	beq	a5,zero,.L318
	addi	a5,s0,-344
	mv	a0,a5
	call	_ZNSaIcEC1Ev
	addi	a5,s0,-344
	addi	a4,s0,-376
	mv	a2,a5
	lui	a5,%hi(.LC44)
	addi	a1,a5,%lo(.LC44)
	mv	a0,a4
.LEHB127:
	call	_ZNSt7__cxx1112basic_stringIcSt11char_traitsIcESaIcEEC1EPKcRKS3_
.LEHE127:
	addi	a5,s0,-304
	mv	a0,a5
	call	_ZNSaIcEC1Ev
	addi	a5,s0,-304
	addi	a4,s0,-336
	mv	a2,a5
	lui	a5,%hi(.LC8)
	addi	a1,a5,%lo(.LC8)
	mv	a0,a4
.LEHB128:
	call	_ZNSt7__cxx1112basic_stringIcSt11char_traitsIcESaIcEEC1EPKcRKS3_
.LEHE128:
	addi	a5,s0,-264
	mv	a0,a5
	call	_ZNSaIcEC1Ev
	addi	a5,s0,-264
	addi	a4,s0,-296
	mv	a2,a5
	lui	a5,%hi(.LC8)
	addi	a1,a5,%lo(.LC8)
	mv	a0,a4
.LEHB129:
	call	_ZNSt7__cxx1112basic_stringIcSt11char_traitsIcESaIcEEC1EPKcRKS3_
.LEHE129:
	ld	a5,-488(s0)
	sd	a5,-560(s0)
	ld	a5,-480(s0)
	sd	a5,-552(s0)
	ld	a5,-472(s0)
	sd	a5,-544(s0)
	addi	a4,s0,-296
	addi	a3,s0,-336
	addi	a1,s0,-376
	addi	a5,s0,-560
	li	a2,75
	mv	a0,a5
.LEHB130:
	call	_Z4mpre6TstairNSt7__cxx1112basic_stringIcSt11char_traitsIcESaIcEEEiS5_S5_
.LEHE130:
	addi	a5,s0,-296
	mv	a0,a5
	call	_ZNSt7__cxx1112basic_stringIcSt11char_traitsIcESaIcEED1Ev
	addi	a5,s0,-264
	mv	a0,a5
	call	_ZNSaIcED1Ev
	addi	a5,s0,-336
	mv	a0,a5
	call	_ZNSt7__cxx1112basic_stringIcSt11char_traitsIcESaIcEED1Ev
	addi	a5,s0,-304
	mv	a0,a5
	call	_ZNSaIcED1Ev
	addi	a5,s0,-376
	mv	a0,a5
	call	_ZNSt7__cxx1112basic_stringIcSt11char_traitsIcESaIcEED1Ev
	addi	a5,s0,-344
	mv	a0,a5
	call	_ZNSaIcED1Ev
	j	.L320
.L318:
	addi	a5,s0,-512
	sd	a5,-256(s0)
	ld	a5,-520(s0)
	ld	a5,0(a5)
	sd	a5,-248(s0)
	addi	a5,s0,-256
	mv	a0,a5
.LEHB131:
	call	_ZZZN7Bimorph3ValEiENKUlvE0_clEvENKUlvE0_clEv
.LEHE131:
	mv	a5,a0
	beq	a5,zero,.L319
	addi	a5,s0,-208
	mv	a0,a5
	call	_ZNSaIcEC1Ev
	addi	a5,s0,-208
	addi	a4,s0,-240
	mv	a2,a5
	lui	a5,%hi(.LC45)
	addi	a1,a5,%lo(.LC45)
	mv	a0,a4
.LEHB132:
	call	_ZNSt7__cxx1112basic_stringIcSt11char_traitsIcESaIcEEC1EPKcRKS3_
.LEHE132:
	addi	a5,s0,-240
	li	a1,82
	mv	a0,a5
.LEHB133:
	call	_Z4mpreNSt7__cxx1112basic_stringIcSt11char_traitsIcESaIcEEEi
.LEHE133:
	addi	a5,s0,-240
	mv	a0,a5
	call	_ZNSt7__cxx1112basic_stringIcSt11char_traitsIcESaIcEED1Ev
	addi	a5,s0,-208
	mv	a0,a5
	call	_ZNSaIcED1Ev
	j	.L320
.L319:
	ld	a5,-520(s0)
	ld	a4,0(a5)
	li	a5,8192
	addi	a5,a5,-1992
	add	a4,a4,a5
	addi	a5,s0,-104
	mv	a1,a4
	mv	a0,a5
.LEHB134:
	call	_ZNKSt6bitsetILm8EE9to_stringB5cxx11Ev
.LEHE134:
	addi	a4,s0,-136
	addi	a5,s0,-104
	mv	a2,a5
	lui	a5,%hi(.LC46)
	addi	a1,a5,%lo(.LC46)
	mv	a0,a4
.LEHB135:
	call	_ZStplIcSt11char_traitsIcESaIcEENSt7__cxx1112basic_stringIT_T0_T1_EEPKS5_OS8_
.LEHE135:
	addi	a4,s0,-168
	addi	a3,s0,-136
	lui	a5,%hi(.LC47)
	addi	a2,a5,%lo(.LC47)
	mv	a1,a3
	mv	a0,a4
.LEHB136:
	call	_ZStplIcSt11char_traitsIcESaIcEENSt7__cxx1112basic_stringIT_T0_T1_EEOS8_PKS5_
.LEHE136:
	ld	a5,-520(s0)
	ld	a4,0(a5)
	li	a5,8192
	addi	a5,a5,-1960
	add	a5,a4,a5
	mv	a0,a5
	call	_ZNKSt5stackI6TstairSt5dequeIS0_SaIS0_EEE4sizeEv
	mv	a4,a0
	addi	a5,s0,-72
	mv	a1,a4
	mv	a0,a5
.LEHB137:
	call	_ZNSt7__cxx119to_stringEm
.LEHE137:
	addi	a5,s0,-200
	addi	a3,s0,-72
	addi	a4,s0,-168
	mv	a2,a3
	mv	a1,a4
	mv	a0,a5
.LEHB138:
	call	_ZStplIcSt11char_traitsIcESaIcEENSt7__cxx1112basic_stringIT_T0_T1_EEOS8_S9_
.LEHE138:
	addi	a5,s0,-200
	li	a1,85
	mv	a0,a5
.LEHB139:
	call	_Z4mpreNSt7__cxx1112basic_stringIcSt11char_traitsIcESaIcEEEi
.LEHE139:
	addi	a5,s0,-200
	mv	a0,a5
	call	_ZNSt7__cxx1112basic_stringIcSt11char_traitsIcESaIcEED1Ev
	addi	a5,s0,-72
	mv	a0,a5
	call	_ZNSt7__cxx1112basic_stringIcSt11char_traitsIcESaIcEED1Ev
	addi	a5,s0,-168
	mv	a0,a5
	call	_ZNSt7__cxx1112basic_stringIcSt11char_traitsIcESaIcEED1Ev
	addi	a5,s0,-136
	mv	a0,a5
	call	_ZNSt7__cxx1112basic_stringIcSt11char_traitsIcESaIcEED1Ev
	addi	a5,s0,-104
	mv	a0,a5
	call	_ZNSt7__cxx1112basic_stringIcSt11char_traitsIcESaIcEED1Ev
	j	.L320
.L315:
	li	a5,0
	j	.L350
.L338:
	mv	s1,a0
	addi	a5,s0,-416
	mv	a0,a5
	call	_ZNSt7__cxx1112basic_stringIcSt11char_traitsIcESaIcEED1Ev
	j	.L323
.L337:
	mv	s1,a0
.L323:
	addi	a5,s0,-384
	mv	a0,a5
	call	_ZNSaIcED1Ev
	mv	a5,s1
	j	.L324
.L342:
	mv	s1,a0
	addi	a5,s0,-296
	mv	a0,a5
	call	_ZNSt7__cxx1112basic_stringIcSt11char_traitsIcESaIcEED1Ev
	j	.L326
.L341:
	mv	s1,a0
.L326:
	addi	a5,s0,-264
	mv	a0,a5
	call	_ZNSaIcED1Ev
	addi	a5,s0,-336
	mv	a0,a5
	call	_ZNSt7__cxx1112basic_stringIcSt11char_traitsIcESaIcEED1Ev
	j	.L327
.L340:
	mv	s1,a0
.L327:
	addi	a5,s0,-304
	mv	a0,a5
	call	_ZNSaIcED1Ev
	addi	a5,s0,-376
	mv	a0,a5
	call	_ZNSt7__cxx1112basic_stringIcSt11char_traitsIcESaIcEED1Ev
	j	.L328
.L339:
	mv	s1,a0
.L328:
	addi	a5,s0,-344
	mv	a0,a5
	call	_ZNSaIcED1Ev
	mv	a5,s1
	j	.L324
.L344:
	mv	s1,a0
	addi	a5,s0,-240
	mv	a0,a5
	call	_ZNSt7__cxx1112basic_stringIcSt11char_traitsIcESaIcEED1Ev
	j	.L330
.L343:
	mv	s1,a0
.L330:
	addi	a5,s0,-208
	mv	a0,a5
	call	_ZNSaIcED1Ev
	mv	a5,s1
	j	.L324
.L349:
	mv	s1,a0
	addi	a5,s0,-200
	mv	a0,a5
	call	_ZNSt7__cxx1112basic_stringIcSt11char_traitsIcESaIcEED1Ev
	j	.L332
.L348:
	mv	s1,a0
.L332:
	addi	a5,s0,-72
	mv	a0,a5
	call	_ZNSt7__cxx1112basic_stringIcSt11char_traitsIcESaIcEED1Ev
	j	.L333
.L347:
	mv	s1,a0
.L333:
	addi	a5,s0,-168
	mv	a0,a5
	call	_ZNSt7__cxx1112basic_stringIcSt11char_traitsIcESaIcEED1Ev
	j	.L334
.L346:
	mv	s1,a0
.L334:
	addi	a5,s0,-136
	mv	a0,a5
	call	_ZNSt7__cxx1112basic_stringIcSt11char_traitsIcESaIcEED1Ev
	j	.L335
.L345:
	mv	s1,a0
.L335:
	addi	a5,s0,-104
	mv	a0,a5
	call	_ZNSt7__cxx1112basic_stringIcSt11char_traitsIcESaIcEED1Ev
	mv	a5,s1
	j	.L324
.L336:
	mv	a5,a0
.L324:
	mv	a0,a5
.LEHB140:
	call	_Unwind_Resume
.LEHE140:
.L350:
	mv	a0,a5
	ld	ra,552(sp)
	.cfi_restore 1
	ld	s0,544(sp)
	.cfi_restore 8
	.cfi_def_cfa 2, 560
	ld	s1,536(sp)
	.cfi_restore 9
	addi	sp,sp,560
	.cfi_def_cfa_offset 0
	jr	ra
	.cfi_endproc
.LFE2810:
	.section	.gcc_except_table
.LLSDA2810:
	.byte	0xff
	.byte	0xff
	.byte	0x3
	.byte	0xdd,0x1
	.4byte	.LEHB124-.LFB2810
	.4byte	.LEHE124-.LEHB124
	.4byte	.L336-.LFB2810
	.byte	0
	.4byte	.LEHB125-.LFB2810
	.4byte	.LEHE125-.LEHB125
	.4byte	.L337-.LFB2810
	.byte	0
	.4byte	.LEHB126-.LFB2810
	.4byte	.LEHE126-.LEHB126
	.4byte	.L338-.LFB2810
	.byte	0
	.4byte	.LEHB127-.LFB2810
	.4byte	.LEHE127-.LEHB127
	.4byte	.L339-.LFB2810
	.byte	0
	.4byte	.LEHB128-.LFB2810
	.4byte	.LEHE128-.LEHB128
	.4byte	.L340-.LFB2810
	.byte	0
	.4byte	.LEHB129-.LFB2810
	.4byte	.LEHE129-.LEHB129
	.4byte	.L341-.LFB2810
	.byte	0
	.4byte	.LEHB130-.LFB2810
	.4byte	.LEHE130-.LEHB130
	.4byte	.L342-.LFB2810
	.byte	0
	.4byte	.LEHB131-.LFB2810
	.4byte	.LEHE131-.LEHB131
	.4byte	.L336-.LFB2810
	.byte	0
	.4byte	.LEHB132-.LFB2810
	.4byte	.LEHE132-.LEHB132
	.4byte	.L343-.LFB2810
	.byte	0
	.4byte	.LEHB133-.LFB2810
	.4byte	.LEHE133-.LEHB133
	.4byte	.L344-.LFB2810
	.byte	0
	.4byte	.LEHB134-.LFB2810
	.4byte	.LEHE134-.LEHB134
	.4byte	.L336-.LFB2810
	.byte	0
	.4byte	.LEHB135-.LFB2810
	.4byte	.LEHE135-.LEHB135
	.4byte	.L345-.LFB2810
	.byte	0
	.4byte	.LEHB136-.LFB2810
	.4byte	.LEHE136-.LEHB136
	.4byte	.L346-.LFB2810
	.byte	0
	.4byte	.LEHB137-.LFB2810
	.4byte	.LEHE137-.LEHB137
	.4byte	.L347-.LFB2810
	.byte	0
	.4byte	.LEHB138-.LFB2810
	.4byte	.LEHE138-.LEHB138
	.4byte	.L348-.LFB2810
	.byte	0
	.4byte	.LEHB139-.LFB2810
	.4byte	.LEHE139-.LEHB139
	.4byte	.L349-.LFB2810
	.byte	0
	.4byte	.LEHB140-.LFB2810
	.4byte	.LEHE140-.LEHB140
	.4byte	0
	.byte	0
	.section	.text._ZZN7Bimorph3ValEiENKUlvE0_clEv,"axG",@progbits,_ZZN7Bimorph3ValEiENKUlvE0_clEv,comdat
	.size	_ZZN7Bimorph3ValEiENKUlvE0_clEv, .-_ZZN7Bimorph3ValEiENKUlvE0_clEv
	.section	.text._ZZZN7Bimorph3ValEiENKUlvE0_clEvENKUlvE_clEv,"axG",@progbits,_ZZZN7Bimorph3ValEiENKUlvE0_clEvENKUlvE_clEv,comdat
	.align	1
	.weak	_ZZZN7Bimorph3ValEiENKUlvE0_clEvENKUlvE_clEv
	.type	_ZZZN7Bimorph3ValEiENKUlvE0_clEvENKUlvE_clEv, @function
_ZZZN7Bimorph3ValEiENKUlvE0_clEvENKUlvE_clEv:
.LFB2811:
	.cfi_startproc
	addi	sp,sp,-32
	.cfi_def_cfa_offset 32
	sd	ra,24(sp)
	sd	s0,16(sp)
	.cfi_offset 1, -8
	.cfi_offset 8, -16
	addi	s0,sp,32
	.cfi_def_cfa 8, 0
	sd	a0,-24(s0)
	ld	a5,-24(s0)
	ld	a4,8(a5)
	li	a5,8192
	addi	a5,a5,-1960
	add	a5,a4,a5
	mv	a0,a5
	call	_ZNKSt5stackI6TstairSt5dequeIS0_SaIS0_EEE4sizeEv
	mv	a5,a0
	beq	a5,zero,.L352
	ld	a5,-24(s0)
	ld	a4,8(a5)
	li	a5,8192
	addi	a5,a5,-1960
	add	a5,a4,a5
	mv	a0,a5
	call	_ZNSt5stackI6TstairSt5dequeIS0_SaIS0_EEE3topEv
	mv	a5,a0
	j	.L353
.L352:
	ld	a5,-24(s0)
	ld	a5,16(a5)
.L353:
	ld	a4,-24(s0)
	ld	a4,0(a4)
	ld	a3,0(a5)
	sd	a3,0(a4)
	ld	a3,8(a5)
	sd	a3,8(a4)
	ld	a5,16(a5)
	sd	a5,16(a4)
	li	a5,0
	mv	a0,a5
	ld	ra,24(sp)
	.cfi_restore 1
	ld	s0,16(sp)
	.cfi_restore 8
	.cfi_def_cfa 2, 32
	addi	sp,sp,32
	.cfi_def_cfa_offset 0
	jr	ra
	.cfi_endproc
.LFE2811:
	.size	_ZZZN7Bimorph3ValEiENKUlvE0_clEvENKUlvE_clEv, .-_ZZZN7Bimorph3ValEiENKUlvE0_clEvENKUlvE_clEv
	.section	.rodata
	.align	3
.LC48:
	.string	"\320\234\320\276\321\200\321\204 \321\203\320\266\320\265 \321\201\320\276\320\267\320\264\320\260\320\275"
	.align	3
.LC49:
	.string	"\320\236\320\250\320\230\320\221\320\232\320\220 \321\201\320\276\320\272\321\200\320\260\321\211\320\265\320\275\320\270\321\217 \320\264\320\273\320\270\320\275\320\275\321\213 \321\201\321\202\320\265\320\272\320\260"
	.align	3
.LC50:
	.string	"\320\236\320\250\320\230\320\221\320\232\320\220 \321\203\321\201\321\202\320\260\320\275\320\276\320\262\320\272\320\270 \320\277\321\200\320\270\320\267\320\275\320\260\320\272\320\260 \321\201\321\203\321\211\320\265\321\201\321\202\320\262\320\276\320\262\320\260\320\275\320\270\321\217 \320\274\320\276\321\200\321\204\320\260"
	.align	3
.LC51:
	.string	"\320\236\320\250\320\230\320\221\320\232\320\220 \321\201\320\276\321\205\321\200\320\260\320\275\320\265\320\275\320\270\321\217 \321\201\320\262\320\276\320\271\321\201\321\202\320\262 \320\274\320\276\321\200\321\204\320\260 \320\262 \320\261\321\203\321\204\320\265\321\200\320\265"
	.align	3
.LC52:
	.string	"\320\224\320\276\320\261\320\260\320\262\320\273\320\265\320\275\320\270\320\265 \320\275\320\276\320\262\320\276\320\263\320\276 \320\274\320\276\321\200\321\204\320\260 addr="
	.section	.text._ZZZN7Bimorph3ValEiENKUlvE0_clEvENKUlvE0_clEv,"axG",@progbits,_ZZZN7Bimorph3ValEiENKUlvE0_clEvENKUlvE0_clEv,comdat
	.align	1
	.weak	_ZZZN7Bimorph3ValEiENKUlvE0_clEvENKUlvE0_clEv
	.type	_ZZZN7Bimorph3ValEiENKUlvE0_clEvENKUlvE0_clEv, @function
_ZZZN7Bimorph3ValEiENKUlvE0_clEvENKUlvE0_clEv:
.LFB2812:
	.cfi_startproc
	.cfi_personality 0x9b,DW.ref.__gxx_personality_v0
	.cfi_lsda 0x1b,.LLSDA2812
	addi	sp,sp,-416
	.cfi_def_cfa_offset 416
	sd	ra,408(sp)
	sd	s0,400(sp)
	sd	s1,392(sp)
	.cfi_offset 1, -8
	.cfi_offset 8, -16
	.cfi_offset 9, -24
	addi	s0,sp,416
	.cfi_def_cfa 8, 0
	sd	a0,-376(s0)
	ld	a5,-376(s0)
	ld	a5,0(a5)
	li	a1,7
	mv	a0,a5
.LEHB141:
	call	_ZNKSt6bitsetILm8EE4testEm
.LEHE141:
	mv	a5,a0
	beq	a5,zero,.L356
	addi	a5,s0,-336
	mv	a0,a5
	call	_ZNSaIcEC1Ev
	addi	a5,s0,-336
	addi	a4,s0,-368
	mv	a2,a5
	lui	a5,%hi(.LC48)
	addi	a1,a5,%lo(.LC48)
	mv	a0,a4
.LEHB142:
	call	_ZNSt7__cxx1112basic_stringIcSt11char_traitsIcESaIcEEC1EPKcRKS3_
.LEHE142:
	addi	a5,s0,-368
	li	a1,77
	mv	a0,a5
.LEHB143:
	call	_Z4mpreNSt7__cxx1112basic_stringIcSt11char_traitsIcESaIcEEEi
.LEHE143:
	addi	a5,s0,-368
	mv	a0,a5
	call	_ZNSt7__cxx1112basic_stringIcSt11char_traitsIcESaIcEED1Ev
	addi	a5,s0,-336
	mv	a0,a5
	call	_ZNSaIcED1Ev
	j	.L357
.L356:
	ld	a5,-376(s0)
	ld	a5,8(a5)
	sd	a5,-328(s0)
	addi	a5,s0,-328
	mv	a0,a5
.LEHB144:
	call	_ZZZZN7Bimorph3ValEiENKUlvE0_clEvENKUlvE0_clEvENKUlvE_clEv
.LEHE144:
	mv	a5,a0
	beq	a5,zero,.L358
	addi	a5,s0,-288
	mv	a0,a5
	call	_ZNSaIcEC1Ev
	addi	a5,s0,-288
	addi	a4,s0,-320
	mv	a2,a5
	lui	a5,%hi(.LC49)
	addi	a1,a5,%lo(.LC49)
	mv	a0,a4
.LEHB145:
	call	_ZNSt7__cxx1112basic_stringIcSt11char_traitsIcESaIcEEC1EPKcRKS3_
.LEHE145:
	addi	a5,s0,-320
	li	a1,78
	mv	a0,a5
.LEHB146:
	call	_Z4mpreNSt7__cxx1112basic_stringIcSt11char_traitsIcESaIcEEEi
.LEHE146:
	addi	a5,s0,-320
	mv	a0,a5
	call	_ZNSt7__cxx1112basic_stringIcSt11char_traitsIcESaIcEED1Ev
	addi	a5,s0,-288
	mv	a0,a5
	call	_ZNSaIcED1Ev
	j	.L357
.L358:
	ld	a5,-376(s0)
	ld	a5,0(a5)
	sd	a5,-280(s0)
	addi	a5,s0,-280
	mv	a0,a5
.LEHB147:
	call	_ZZZZN7Bimorph3ValEiENKUlvE0_clEvENKUlvE0_clEvENKUlvE0_clEv
.LEHE147:
	mv	a5,a0
	beq	a5,zero,.L359
	addi	a5,s0,-240
	mv	a0,a5
	call	_ZNSaIcEC1Ev
	addi	a5,s0,-240
	addi	a4,s0,-272
	mv	a2,a5
	lui	a5,%hi(.LC50)
	addi	a1,a5,%lo(.LC50)
	mv	a0,a4
.LEHB148:
	call	_ZNSt7__cxx1112basic_stringIcSt11char_traitsIcESaIcEEC1EPKcRKS3_
.LEHE148:
	addi	a5,s0,-272
	li	a1,79
	mv	a0,a5
.LEHB149:
	call	_Z4mpreNSt7__cxx1112basic_stringIcSt11char_traitsIcESaIcEEEi
.LEHE149:
	addi	a5,s0,-272
	mv	a0,a5
	call	_ZNSt7__cxx1112basic_stringIcSt11char_traitsIcESaIcEED1Ev
	addi	a5,s0,-240
	mv	a0,a5
	call	_ZNSaIcED1Ev
	j	.L357
.L359:
	ld	a5,-376(s0)
	ld	a5,8(a5)
	sd	a5,-232(s0)
	ld	a5,-376(s0)
	ld	a5,0(a5)
	sd	a5,-224(s0)
	addi	a5,s0,-232
	mv	a0,a5
.LEHB150:
	call	_ZZZZN7Bimorph3ValEiENKUlvE0_clEvENKUlvE0_clEvENKUlvE1_clEv
.LEHE150:
	mv	a5,a0
	beq	a5,zero,.L360
	addi	a5,s0,-184
	mv	a0,a5
	call	_ZNSaIcEC1Ev
	addi	a5,s0,-184
	addi	a4,s0,-216
	mv	a2,a5
	lui	a5,%hi(.LC51)
	addi	a1,a5,%lo(.LC51)
	mv	a0,a4
.LEHB151:
	call	_ZNSt7__cxx1112basic_stringIcSt11char_traitsIcESaIcEEC1EPKcRKS3_
.LEHE151:
	addi	a5,s0,-216
	li	a1,80
	mv	a0,a5
.LEHB152:
	call	_Z4mpreNSt7__cxx1112basic_stringIcSt11char_traitsIcESaIcEEEi
.LEHE152:
	addi	a5,s0,-216
	mv	a0,a5
	call	_ZNSt7__cxx1112basic_stringIcSt11char_traitsIcESaIcEED1Ev
	addi	a5,s0,-184
	mv	a0,a5
	call	_ZNSaIcED1Ev
	j	.L357
.L360:
	ld	a5,-376(s0)
	ld	s1,0(a5)
	ld	a5,-376(s0)
	ld	a5,0(a5)
	addi	a4,a5,8
	addi	a5,s0,-144
	mv	a1,a4
	mv	a0,a5
.LEHB153:
	call	_ZNKSt6bitsetILm8EE9to_stringB5cxx11Ev
.LEHE153:
	addi	a4,s0,-176
	addi	a5,s0,-144
	mv	a2,a5
	lui	a5,%hi(.LC52)
	addi	a1,a5,%lo(.LC52)
	mv	a0,a4
.LEHB154:
	call	_ZStplIcSt11char_traitsIcESaIcEENSt7__cxx1112basic_stringIT_T0_T1_EEPKS5_OS8_
.LEHE154:
	addi	a5,s0,-80
	mv	a0,a5
	call	_ZNSaIcEC1Ev
	addi	a5,s0,-80
	addi	a4,s0,-112
	mv	a2,a5
	lui	a5,%hi(.LC8)
	addi	a1,a5,%lo(.LC8)
	mv	a0,a4
.LEHB155:
	call	_ZNSt7__cxx1112basic_stringIcSt11char_traitsIcESaIcEEC1EPKcRKS3_
.LEHE155:
	addi	a5,s0,-40
	mv	a0,a5
	call	_ZNSaIcEC1Ev
	addi	a5,s0,-40
	addi	a4,s0,-72
	mv	a2,a5
	lui	a5,%hi(.LC8)
	addi	a1,a5,%lo(.LC8)
	mv	a0,a4
.LEHB156:
	call	_ZNSt7__cxx1112basic_stringIcSt11char_traitsIcESaIcEEC1EPKcRKS3_
.LEHE156:
	ld	a5,0(s1)
	sd	a5,-416(s0)
	ld	a5,8(s1)
	sd	a5,-408(s0)
	ld	a5,16(s1)
	sd	a5,-400(s0)
	addi	a4,s0,-72
	addi	a3,s0,-112
	addi	a1,s0,-176
	addi	a5,s0,-416
	li	a2,81
	mv	a0,a5
.LEHB157:
	call	_Z4mpre6TstairNSt7__cxx1112basic_stringIcSt11char_traitsIcESaIcEEEiS5_S5_
.LEHE157:
	addi	a5,s0,-72
	mv	a0,a5
	call	_ZNSt7__cxx1112basic_stringIcSt11char_traitsIcESaIcEED1Ev
	addi	a5,s0,-40
	mv	a0,a5
	call	_ZNSaIcED1Ev
	addi	a5,s0,-112
	mv	a0,a5
	call	_ZNSt7__cxx1112basic_stringIcSt11char_traitsIcESaIcEED1Ev
	addi	a5,s0,-80
	mv	a0,a5
	call	_ZNSaIcED1Ev
	addi	a5,s0,-176
	mv	a0,a5
	call	_ZNSt7__cxx1112basic_stringIcSt11char_traitsIcESaIcEED1Ev
	addi	a5,s0,-144
	mv	a0,a5
	call	_ZNSt7__cxx1112basic_stringIcSt11char_traitsIcESaIcEED1Ev
.L357:
	li	a5,0
	j	.L386
.L375:
	mv	s1,a0
	addi	a5,s0,-368
	mv	a0,a5
	call	_ZNSt7__cxx1112basic_stringIcSt11char_traitsIcESaIcEED1Ev
	j	.L363
.L374:
	mv	s1,a0
.L363:
	addi	a5,s0,-336
	mv	a0,a5
	call	_ZNSaIcED1Ev
	mv	a5,s1
	mv	a0,a5
.LEHB158:
	call	_Unwind_Resume
.L377:
	mv	s1,a0
	addi	a5,s0,-320
	mv	a0,a5
	call	_ZNSt7__cxx1112basic_stringIcSt11char_traitsIcESaIcEED1Ev
	j	.L365
.L376:
	mv	s1,a0
.L365:
	addi	a5,s0,-288
	mv	a0,a5
	call	_ZNSaIcED1Ev
	mv	a5,s1
	mv	a0,a5
	call	_Unwind_Resume
.L379:
	mv	s1,a0
	addi	a5,s0,-272
	mv	a0,a5
	call	_ZNSt7__cxx1112basic_stringIcSt11char_traitsIcESaIcEED1Ev
	j	.L367
.L378:
	mv	s1,a0
.L367:
	addi	a5,s0,-240
	mv	a0,a5
	call	_ZNSaIcED1Ev
	mv	a5,s1
	mv	a0,a5
	call	_Unwind_Resume
.L381:
	mv	s1,a0
	addi	a5,s0,-216
	mv	a0,a5
	call	_ZNSt7__cxx1112basic_stringIcSt11char_traitsIcESaIcEED1Ev
	j	.L369
.L380:
	mv	s1,a0
.L369:
	addi	a5,s0,-184
	mv	a0,a5
	call	_ZNSaIcED1Ev
	mv	a5,s1
	mv	a0,a5
	call	_Unwind_Resume
.L385:
	mv	s1,a0
	addi	a5,s0,-72
	mv	a0,a5
	call	_ZNSt7__cxx1112basic_stringIcSt11char_traitsIcESaIcEED1Ev
	j	.L371
.L384:
	mv	s1,a0
.L371:
	addi	a5,s0,-40
	mv	a0,a5
	call	_ZNSaIcED1Ev
	addi	a5,s0,-112
	mv	a0,a5
	call	_ZNSt7__cxx1112basic_stringIcSt11char_traitsIcESaIcEED1Ev
	j	.L372
.L383:
	mv	s1,a0
.L372:
	addi	a5,s0,-80
	mv	a0,a5
	call	_ZNSaIcED1Ev
	addi	a5,s0,-176
	mv	a0,a5
	call	_ZNSt7__cxx1112basic_stringIcSt11char_traitsIcESaIcEED1Ev
	j	.L373
.L382:
	mv	s1,a0
.L373:
	addi	a5,s0,-144
	mv	a0,a5
	call	_ZNSt7__cxx1112basic_stringIcSt11char_traitsIcESaIcEED1Ev
	mv	a5,s1
	mv	a0,a5
	call	_Unwind_Resume
.LEHE158:
.L386:
	mv	a0,a5
	ld	ra,408(sp)
	.cfi_restore 1
	ld	s0,400(sp)
	.cfi_restore 8
	.cfi_def_cfa 2, 416
	ld	s1,392(sp)
	.cfi_restore 9
	addi	sp,sp,416
	.cfi_def_cfa_offset 0
	jr	ra
	.cfi_endproc
.LFE2812:
	.section	.gcc_except_table
.LLSDA2812:
	.byte	0xff
	.byte	0xff
	.byte	0x3
	.byte	0xea,0x1
	.4byte	.LEHB141-.LFB2812
	.4byte	.LEHE141-.LEHB141
	.4byte	0
	.byte	0
	.4byte	.LEHB142-.LFB2812
	.4byte	.LEHE142-.LEHB142
	.4byte	.L374-.LFB2812
	.byte	0
	.4byte	.LEHB143-.LFB2812
	.4byte	.LEHE143-.LEHB143
	.4byte	.L375-.LFB2812
	.byte	0
	.4byte	.LEHB144-.LFB2812
	.4byte	.LEHE144-.LEHB144
	.4byte	0
	.byte	0
	.4byte	.LEHB145-.LFB2812
	.4byte	.LEHE145-.LEHB145
	.4byte	.L376-.LFB2812
	.byte	0
	.4byte	.LEHB146-.LFB2812
	.4byte	.LEHE146-.LEHB146
	.4byte	.L377-.LFB2812
	.byte	0
	.4byte	.LEHB147-.LFB2812
	.4byte	.LEHE147-.LEHB147
	.4byte	0
	.byte	0
	.4byte	.LEHB148-.LFB2812
	.4byte	.LEHE148-.LEHB148
	.4byte	.L378-.LFB2812
	.byte	0
	.4byte	.LEHB149-.LFB2812
	.4byte	.LEHE149-.LEHB149
	.4byte	.L379-.LFB2812
	.byte	0
	.4byte	.LEHB150-.LFB2812
	.4byte	.LEHE150-.LEHB150
	.4byte	0
	.byte	0
	.4byte	.LEHB151-.LFB2812
	.4byte	.LEHE151-.LEHB151
	.4byte	.L380-.LFB2812
	.byte	0
	.4byte	.LEHB152-.LFB2812
	.4byte	.LEHE152-.LEHB152
	.4byte	.L381-.LFB2812
	.byte	0
	.4byte	.LEHB153-.LFB2812
	.4byte	.LEHE153-.LEHB153
	.4byte	0
	.byte	0
	.4byte	.LEHB154-.LFB2812
	.4byte	.LEHE154-.LEHB154
	.4byte	.L382-.LFB2812
	.byte	0
	.4byte	.LEHB155-.LFB2812
	.4byte	.LEHE155-.LEHB155
	.4byte	.L383-.LFB2812
	.byte	0
	.4byte	.LEHB156-.LFB2812
	.4byte	.LEHE156-.LEHB156
	.4byte	.L384-.LFB2812
	.byte	0
	.4byte	.LEHB157-.LFB2812
	.4byte	.LEHE157-.LEHB157
	.4byte	.L385-.LFB2812
	.byte	0
	.4byte	.LEHB158-.LFB2812
	.4byte	.LEHE158-.LEHB158
	.4byte	0
	.byte	0
	.section	.text._ZZZN7Bimorph3ValEiENKUlvE0_clEvENKUlvE0_clEv,"axG",@progbits,_ZZZN7Bimorph3ValEiENKUlvE0_clEvENKUlvE0_clEv,comdat
	.size	_ZZZN7Bimorph3ValEiENKUlvE0_clEvENKUlvE0_clEv, .-_ZZZN7Bimorph3ValEiENKUlvE0_clEvENKUlvE0_clEv
	.section	.text._ZZZZN7Bimorph3ValEiENKUlvE0_clEvENKUlvE0_clEvENKUlvE_clEv,"axG",@progbits,_ZZZZN7Bimorph3ValEiENKUlvE0_clEvENKUlvE0_clEvENKUlvE_clEv,comdat
	.align	1
	.weak	_ZZZZN7Bimorph3ValEiENKUlvE0_clEvENKUlvE0_clEvENKUlvE_clEv
	.type	_ZZZZN7Bimorph3ValEiENKUlvE0_clEvENKUlvE0_clEvENKUlvE_clEv, @function
_ZZZZN7Bimorph3ValEiENKUlvE0_clEvENKUlvE0_clEvENKUlvE_clEv:
.LFB2813:
	.cfi_startproc
	addi	sp,sp,-32
	.cfi_def_cfa_offset 32
	sd	ra,24(sp)
	sd	s0,16(sp)
	.cfi_offset 1, -8
	.cfi_offset 8, -16
	addi	s0,sp,32
	.cfi_def_cfa 8, 0
	sd	a0,-24(s0)
	ld	a5,-24(s0)
	ld	a4,0(a5)
	li	a5,8192
	addi	a5,a5,-1960
	add	a5,a4,a5
	mv	a0,a5
	call	_ZNSt5stackI6TstairSt5dequeIS0_SaIS0_EEE3popEv
	li	a5,0
	mv	a0,a5
	ld	ra,24(sp)
	.cfi_restore 1
	ld	s0,16(sp)
	.cfi_restore 8
	.cfi_def_cfa 2, 32
	addi	sp,sp,32
	.cfi_def_cfa_offset 0
	jr	ra
	.cfi_endproc
.LFE2813:
	.size	_ZZZZN7Bimorph3ValEiENKUlvE0_clEvENKUlvE0_clEvENKUlvE_clEv, .-_ZZZZN7Bimorph3ValEiENKUlvE0_clEvENKUlvE0_clEvENKUlvE_clEv
	.section	.text._ZZZZN7Bimorph3ValEiENKUlvE0_clEvENKUlvE0_clEvENKUlvE0_clEv,"axG",@progbits,_ZZZZN7Bimorph3ValEiENKUlvE0_clEvENKUlvE0_clEvENKUlvE0_clEv,comdat
	.align	1
	.weak	_ZZZZN7Bimorph3ValEiENKUlvE0_clEvENKUlvE0_clEvENKUlvE0_clEv
	.type	_ZZZZN7Bimorph3ValEiENKUlvE0_clEvENKUlvE0_clEvENKUlvE0_clEv, @function
_ZZZZN7Bimorph3ValEiENKUlvE0_clEvENKUlvE0_clEvENKUlvE0_clEv:
.LFB2814:
	.cfi_startproc
	addi	sp,sp,-32
	.cfi_def_cfa_offset 32
	sd	ra,24(sp)
	sd	s0,16(sp)
	.cfi_offset 1, -8
	.cfi_offset 8, -16
	addi	s0,sp,32
	.cfi_def_cfa 8, 0
	sd	a0,-24(s0)
	ld	a5,-24(s0)
	ld	a5,0(a5)
	li	a2,1
	li	a1,7
	mv	a0,a5
	call	_ZNSt6bitsetILm8EE3setEmb
	li	a5,0
	mv	a0,a5
	ld	ra,24(sp)
	.cfi_restore 1
	ld	s0,16(sp)
	.cfi_restore 8
	.cfi_def_cfa 2, 32
	addi	sp,sp,32
	.cfi_def_cfa_offset 0
	jr	ra
	.cfi_endproc
.LFE2814:
	.size	_ZZZZN7Bimorph3ValEiENKUlvE0_clEvENKUlvE0_clEvENKUlvE0_clEv, .-_ZZZZN7Bimorph3ValEiENKUlvE0_clEvENKUlvE0_clEvENKUlvE0_clEv
	.section	.text._ZZZZN7Bimorph3ValEiENKUlvE0_clEvENKUlvE0_clEvENKUlvE1_clEv,"axG",@progbits,_ZZZZN7Bimorph3ValEiENKUlvE0_clEvENKUlvE0_clEvENKUlvE1_clEv,comdat
	.align	1
	.weak	_ZZZZN7Bimorph3ValEiENKUlvE0_clEvENKUlvE0_clEvENKUlvE1_clEv
	.type	_ZZZZN7Bimorph3ValEiENKUlvE0_clEvENKUlvE0_clEvENKUlvE1_clEv, @function
_ZZZZN7Bimorph3ValEiENKUlvE0_clEvENKUlvE0_clEvENKUlvE1_clEv:
.LFB2815:
	.cfi_startproc
	addi	sp,sp,-48
	.cfi_def_cfa_offset 48
	sd	ra,40(sp)
	sd	s0,32(sp)
	sd	s1,24(sp)
	sd	s2,16(sp)
	.cfi_offset 1, -8
	.cfi_offset 8, -16
	.cfi_offset 9, -24
	.cfi_offset 18, -32
	addi	s0,sp,48
	.cfi_def_cfa 8, 0
	sd	a0,-40(s0)
	ld	a5,-40(s0)
	ld	s1,8(a5)
	ld	a5,-40(s0)
	ld	s2,0(a5)
	ld	a5,-40(s0)
	ld	a4,0(a5)
	li	a5,8192
	addi	a5,a5,-1992
	add	a5,a4,a5
	mv	a0,a5
	call	_ZNKSt6bitsetILm8EE8to_ulongEv
	mv	a4,a0
	mv	a5,a4
	slli	a5,a5,1
	add	a5,a5,a4
	slli	a5,a5,3
	add	a5,s2,a5
	ld	a4,0(s1)
	sd	a4,56(a5)
	li	a5,0
	mv	a0,a5
	ld	ra,40(sp)
	.cfi_restore 1
	ld	s0,32(sp)
	.cfi_restore 8
	.cfi_def_cfa 2, 48
	ld	s1,24(sp)
	.cfi_restore 9
	ld	s2,16(sp)
	.cfi_restore 18
	addi	sp,sp,48
	.cfi_def_cfa_offset 0
	jr	ra
	.cfi_endproc
.LFE2815:
	.size	_ZZZZN7Bimorph3ValEiENKUlvE0_clEvENKUlvE0_clEvENKUlvE1_clEv, .-_ZZZZN7Bimorph3ValEiENKUlvE0_clEvENKUlvE0_clEvENKUlvE1_clEv
	.section	.rodata
	.align	3
.LC53:
	.string	"\320\240\320\260\321\201\321\207\320\265\321\202 \320\267\320\275\320\260\321\207\320\265\320\275\320\270\321\217 val="
	.align	3
.LC54:
	.string	"\320\236\320\250\320\230\320\221\320\232\320\220 \320\267\320\260\320\263\321\200\321\203\320\267\320\272\320\270 \320\277\320\265\321\200\320\262\320\276\320\275\320\260\321\207\320\260\320\273\321\214\320\275\320\276\320\263\320\276 \320\260\320\264\321\200\320\265\321\201\320\260"
	.align	3
.LC55:
	.string	"\320\236\320\250\320\230\320\221\320\232\320\220 \320\277\320\265\321\200\320\265\320\261\320\276\321\200\320\260 \320\273\320\265\321\201\321\202\320\275\320\270\321\206\321\213"
	.align	3
.LC56:
	.string	"\320\236\320\250\320\230\320\221\320\232\320\220 \320\267\320\260\320\263\321\200\321\203\320\267\320\272\320\270 \320\261\321\203\321\204\320\265\321\200\320\260"
	.align	3
.LC57:
	.string	"\320\240\320\260\321\201\321\207\320\265\321\202 \320\267\320\260\320\272\320\276\320\275\321\207\320\265\320\275"
	.section	.text._ZN7Bimorph3ValEi,"axG",@progbits,_ZN7Bimorph3ValEi,comdat
	.align	1
	.weak	_ZN7Bimorph3ValEi
	.type	_ZN7Bimorph3ValEi, @function
_ZN7Bimorph3ValEi:
.LFB2787:
	.cfi_startproc
	.cfi_personality 0x9b,DW.ref.__gxx_personality_v0
	.cfi_lsda 0x1b,.LLSDA2787
	addi	sp,sp,-304
	.cfi_def_cfa_offset 304
	sd	ra,296(sp)
	sd	s0,288(sp)
	sd	s1,280(sp)
	.cfi_offset 1, -8
	.cfi_offset 8, -16
	.cfi_offset 9, -24
	addi	s0,sp,304
	.cfi_def_cfa 8, 0
	sd	a0,-296(s0)
	mv	a5,a1
	sw	a5,-300(s0)
	lw	a4,-300(s0)
	addi	a5,s0,-256
	mv	a1,a4
	mv	a0,a5
.LEHB159:
	call	_ZNSt7__cxx119to_stringEi
.LEHE159:
	addi	a4,s0,-288
	addi	a5,s0,-256
	mv	a2,a5
	lui	a5,%hi(.LC53)
	addi	a1,a5,%lo(.LC53)
	mv	a0,a4
.LEHB160:
	call	_ZStplIcSt11char_traitsIcESaIcEENSt7__cxx1112basic_stringIT_T0_T1_EEPKS5_OS8_
.LEHE160:
	addi	a5,s0,-288
	li	a1,54
	mv	a0,a5
.LEHB161:
	call	_Z4mpreNSt7__cxx1112basic_stringIcSt11char_traitsIcESaIcEEEi
.LEHE161:
	addi	a5,s0,-288
	mv	a0,a5
	call	_ZNSt7__cxx1112basic_stringIcSt11char_traitsIcESaIcEED1Ev
	addi	a5,s0,-256
	mv	a0,a5
	call	_ZNSt7__cxx1112basic_stringIcSt11char_traitsIcESaIcEED1Ev
	ld	a5,-296(s0)
	sd	a5,-224(s0)
	addi	a5,s0,-300
	sd	a5,-216(s0)
	addi	a5,s0,-224
	mv	a0,a5
.LEHB162:
	call	_ZZN7Bimorph3ValEiENKUlvE_clEv
.LEHE162:
	mv	a5,a0
	beq	a5,zero,.L394
	addi	a5,s0,-176
	mv	a0,a5
	call	_ZNSaIcEC1Ev
	addi	a5,s0,-176
	addi	a4,s0,-208
	mv	a2,a5
	lui	a5,%hi(.LC54)
	addi	a1,a5,%lo(.LC54)
	mv	a0,a4
.LEHB163:
	call	_ZNSt7__cxx1112basic_stringIcSt11char_traitsIcESaIcEEC1EPKcRKS3_
.LEHE163:
	addi	a5,s0,-208
	li	a1,70
	mv	a0,a5
.LEHB164:
	call	_Z4mpreNSt7__cxx1112basic_stringIcSt11char_traitsIcESaIcEEEi
.LEHE164:
	addi	a5,s0,-208
	mv	a0,a5
	call	_ZNSt7__cxx1112basic_stringIcSt11char_traitsIcESaIcEED1Ev
	addi	a5,s0,-176
	mv	a0,a5
	call	_ZNSaIcED1Ev
	j	.L395
.L394:
	ld	a5,-296(s0)
	sd	a5,-168(s0)
	addi	a5,s0,-168
	mv	a0,a5
.LEHB165:
	call	_ZZN7Bimorph3ValEiENKUlvE0_clEv
.LEHE165:
	mv	a5,a0
	beq	a5,zero,.L396
	addi	a5,s0,-128
	mv	a0,a5
	call	_ZNSaIcEC1Ev
	addi	a5,s0,-128
	addi	a4,s0,-160
	mv	a2,a5
	lui	a5,%hi(.LC55)
	addi	a1,a5,%lo(.LC55)
	mv	a0,a4
.LEHB166:
	call	_ZNSt7__cxx1112basic_stringIcSt11char_traitsIcESaIcEEC1EPKcRKS3_
.LEHE166:
	addi	a5,s0,-160
	li	a1,87
	mv	a0,a5
.LEHB167:
	call	_Z4mpreNSt7__cxx1112basic_stringIcSt11char_traitsIcESaIcEEEi
.LEHE167:
	addi	a5,s0,-160
	mv	a0,a5
	call	_ZNSt7__cxx1112basic_stringIcSt11char_traitsIcESaIcEED1Ev
	addi	a5,s0,-128
	mv	a0,a5
	call	_ZNSaIcED1Ev
	j	.L395
.L396:
	addi	a5,s0,-120
	li	a1,0
	mv	a0,a5
	call	_ZNSt6bitsetILm32EEC1Ey
	li	a2,0
	ld	a1,-120(s0)
	ld	a0,-296(s0)
.LEHB168:
	call	_ZN7Bimorph3BufESt6bitsetILm32EEb
.LEHE168:
	mv	a5,a0
	xori	a5,a5,1
	andi	a5,a5,0xff
	beq	a5,zero,.L397
	addi	a5,s0,-80
	mv	a0,a5
	call	_ZNSaIcEC1Ev
	addi	a5,s0,-80
	addi	a4,s0,-112
	mv	a2,a5
	lui	a5,%hi(.LC56)
	addi	a1,a5,%lo(.LC56)
	mv	a0,a4
.LEHB169:
	call	_ZNSt7__cxx1112basic_stringIcSt11char_traitsIcESaIcEEC1EPKcRKS3_
.LEHE169:
	addi	a5,s0,-112
	li	a1,88
	mv	a0,a5
.LEHB170:
	call	_Z4mpreNSt7__cxx1112basic_stringIcSt11char_traitsIcESaIcEEEi
.LEHE170:
	addi	a5,s0,-112
	mv	a0,a5
	call	_ZNSt7__cxx1112basic_stringIcSt11char_traitsIcESaIcEED1Ev
	addi	a5,s0,-80
	mv	a0,a5
	call	_ZNSaIcED1Ev
	j	.L395
.L397:
	addi	a5,s0,-40
	mv	a0,a5
	call	_ZNSaIcEC1Ev
	addi	a5,s0,-40
	addi	a4,s0,-72
	mv	a2,a5
	lui	a5,%hi(.LC57)
	addi	a1,a5,%lo(.LC57)
	mv	a0,a4
.LEHB171:
	call	_ZNSt7__cxx1112basic_stringIcSt11char_traitsIcESaIcEEC1EPKcRKS3_
.LEHE171:
	addi	a5,s0,-72
	li	a1,89
	mv	a0,a5
.LEHB172:
	call	_Z4mpreNSt7__cxx1112basic_stringIcSt11char_traitsIcESaIcEEEi
.LEHE172:
	addi	a5,s0,-72
	mv	a0,a5
	call	_ZNSt7__cxx1112basic_stringIcSt11char_traitsIcESaIcEED1Ev
	addi	a5,s0,-40
	mv	a0,a5
	call	_ZNSaIcED1Ev
.L395:
	li	a5,0
	j	.L419
.L410:
	mv	s1,a0
	addi	a5,s0,-288
	mv	a0,a5
	call	_ZNSt7__cxx1112basic_stringIcSt11char_traitsIcESaIcEED1Ev
	j	.L400
.L409:
	mv	s1,a0
.L400:
	addi	a5,s0,-256
	mv	a0,a5
	call	_ZNSt7__cxx1112basic_stringIcSt11char_traitsIcESaIcEED1Ev
	mv	a5,s1
	mv	a0,a5
.LEHB173:
	call	_Unwind_Resume
.L412:
	mv	s1,a0
	addi	a5,s0,-208
	mv	a0,a5
	call	_ZNSt7__cxx1112basic_stringIcSt11char_traitsIcESaIcEED1Ev
	j	.L402
.L411:
	mv	s1,a0
.L402:
	addi	a5,s0,-176
	mv	a0,a5
	call	_ZNSaIcED1Ev
	mv	a5,s1
	mv	a0,a5
	call	_Unwind_Resume
.L414:
	mv	s1,a0
	addi	a5,s0,-160
	mv	a0,a5
	call	_ZNSt7__cxx1112basic_stringIcSt11char_traitsIcESaIcEED1Ev
	j	.L404
.L413:
	mv	s1,a0
.L404:
	addi	a5,s0,-128
	mv	a0,a5
	call	_ZNSaIcED1Ev
	mv	a5,s1
	mv	a0,a5
	call	_Unwind_Resume
.L416:
	mv	s1,a0
	addi	a5,s0,-112
	mv	a0,a5
	call	_ZNSt7__cxx1112basic_stringIcSt11char_traitsIcESaIcEED1Ev
	j	.L406
.L415:
	mv	s1,a0
.L406:
	addi	a5,s0,-80
	mv	a0,a5
	call	_ZNSaIcED1Ev
	mv	a5,s1
	mv	a0,a5
	call	_Unwind_Resume
.L418:
	mv	s1,a0
	addi	a5,s0,-72
	mv	a0,a5
	call	_ZNSt7__cxx1112basic_stringIcSt11char_traitsIcESaIcEED1Ev
	j	.L408
.L417:
	mv	s1,a0
.L408:
	addi	a5,s0,-40
	mv	a0,a5
	call	_ZNSaIcED1Ev
	mv	a5,s1
	mv	a0,a5
	call	_Unwind_Resume
.LEHE173:
.L419:
	mv	a0,a5
	ld	ra,296(sp)
	.cfi_restore 1
	ld	s0,288(sp)
	.cfi_restore 8
	.cfi_def_cfa 2, 304
	ld	s1,280(sp)
	.cfi_restore 9
	addi	sp,sp,304
	.cfi_def_cfa_offset 0
	jr	ra
	.cfi_endproc
.LFE2787:
	.section	.gcc_except_table
.LLSDA2787:
	.byte	0xff
	.byte	0xff
	.byte	0x3
	.byte	0xc3,0x1
	.4byte	.LEHB159-.LFB2787
	.4byte	.LEHE159-.LEHB159
	.4byte	0
	.byte	0
	.4byte	.LEHB160-.LFB2787
	.4byte	.LEHE160-.LEHB160
	.4byte	.L409-.LFB2787
	.byte	0
	.4byte	.LEHB161-.LFB2787
	.4byte	.LEHE161-.LEHB161
	.4byte	.L410-.LFB2787
	.byte	0
	.4byte	.LEHB162-.LFB2787
	.4byte	.LEHE162-.LEHB162
	.4byte	0
	.byte	0
	.4byte	.LEHB163-.LFB2787
	.4byte	.LEHE163-.LEHB163
	.4byte	.L411-.LFB2787
	.byte	0
	.4byte	.LEHB164-.LFB2787
	.4byte	.LEHE164-.LEHB164
	.4byte	.L412-.LFB2787
	.byte	0
	.4byte	.LEHB165-.LFB2787
	.4byte	.LEHE165-.LEHB165
	.4byte	0
	.byte	0
	.4byte	.LEHB166-.LFB2787
	.4byte	.LEHE166-.LEHB166
	.4byte	.L413-.LFB2787
	.byte	0
	.4byte	.LEHB167-.LFB2787
	.4byte	.LEHE167-.LEHB167
	.4byte	.L414-.LFB2787
	.byte	0
	.4byte	.LEHB168-.LFB2787
	.4byte	.LEHE168-.LEHB168
	.4byte	0
	.byte	0
	.4byte	.LEHB169-.LFB2787
	.4byte	.LEHE169-.LEHB169
	.4byte	.L415-.LFB2787
	.byte	0
	.4byte	.LEHB170-.LFB2787
	.4byte	.LEHE170-.LEHB170
	.4byte	.L416-.LFB2787
	.byte	0
	.4byte	.LEHB171-.LFB2787
	.4byte	.LEHE171-.LEHB171
	.4byte	.L417-.LFB2787
	.byte	0
	.4byte	.LEHB172-.LFB2787
	.4byte	.LEHE172-.LEHB172
	.4byte	.L418-.LFB2787
	.byte	0
	.4byte	.LEHB173-.LFB2787
	.4byte	.LEHE173-.LEHB173
	.4byte	0
	.byte	0
	.section	.text._ZN7Bimorph3ValEi,"axG",@progbits,_ZN7Bimorph3ValEi,comdat
	.size	_ZN7Bimorph3ValEi, .-_ZN7Bimorph3ValEi
	.section	.text._ZNSt6bitsetILm24EEC1Ey,"axG",@progbits,_ZNSt6bitsetILm24EEC1Ey,comdat
	.align	1
	.weak	_ZNSt6bitsetILm24EEC1Ey
	.type	_ZNSt6bitsetILm24EEC1Ey, @function
_ZNSt6bitsetILm24EEC1Ey:
.LFB2819:
	.cfi_startproc
	addi	sp,sp,-48
	.cfi_def_cfa_offset 48
	sd	ra,40(sp)
	sd	s0,32(sp)
	sd	s1,24(sp)
	.cfi_offset 1, -8
	.cfi_offset 8, -16
	.cfi_offset 9, -24
	addi	s0,sp,48
	.cfi_def_cfa 8, 0
	sd	a0,-40(s0)
	sd	a1,-48(s0)
	ld	s1,-40(s0)
	ld	a0,-48(s0)
	call	_ZNSt13_Sanitize_valILm24ELb1EE18_S_do_sanitize_valEy
	mv	a5,a0
	mv	a1,a5
	mv	a0,s1
	call	_ZNSt12_Base_bitsetILm1EEC2Ey
	nop
	ld	ra,40(sp)
	.cfi_restore 1
	ld	s0,32(sp)
	.cfi_restore 8
	.cfi_def_cfa 2, 48
	ld	s1,24(sp)
	.cfi_restore 9
	addi	sp,sp,48
	.cfi_def_cfa_offset 0
	jr	ra
	.cfi_endproc
.LFE2819:
	.size	_ZNSt6bitsetILm24EEC1Ey, .-_ZNSt6bitsetILm24EEC1Ey
	.section	.text._ZNSt13_Sanitize_valILm24ELb1EE18_S_do_sanitize_valEy,"axG",@progbits,_ZNSt13_Sanitize_valILm24ELb1EE18_S_do_sanitize_valEy,comdat
	.align	1
	.weak	_ZNSt13_Sanitize_valILm24ELb1EE18_S_do_sanitize_valEy
	.type	_ZNSt13_Sanitize_valILm24ELb1EE18_S_do_sanitize_valEy, @function
_ZNSt13_Sanitize_valILm24ELb1EE18_S_do_sanitize_valEy:
.LFB2820:
	.cfi_startproc
	addi	sp,sp,-32
	.cfi_def_cfa_offset 32
	sd	s0,24(sp)
	.cfi_offset 8, -8
	addi	s0,sp,32
	.cfi_def_cfa 8, 0
	sd	a0,-24(s0)
	ld	a4,-24(s0)
	li	a5,16777216
	addi	a5,a5,-1
	and	a5,a4,a5
	mv	a0,a5
	ld	s0,24(sp)
	.cfi_restore 8
	.cfi_def_cfa 2, 32
	addi	sp,sp,32
	.cfi_def_cfa_offset 0
	jr	ra
	.cfi_endproc
.LFE2820:
	.size	_ZNSt13_Sanitize_valILm24ELb1EE18_S_do_sanitize_valEy, .-_ZNSt13_Sanitize_valILm24ELb1EE18_S_do_sanitize_valEy
	.section	.text._ZZN7Bimorph4AddrEbENKUlvE_clEv,"axG",@progbits,_ZZN7Bimorph4AddrEbENKUlvE_clEv,comdat
	.align	1
	.weak	_ZZN7Bimorph4AddrEbENKUlvE_clEv
	.type	_ZZN7Bimorph4AddrEbENKUlvE_clEv, @function
_ZZN7Bimorph4AddrEbENKUlvE_clEv:
.LFB2824:
	.cfi_startproc
	addi	sp,sp,-64
	.cfi_def_cfa_offset 64
	sd	ra,56(sp)
	sd	s0,48(sp)
	sd	s1,40(sp)
	sd	s2,32(sp)
	.cfi_offset 1, -8
	.cfi_offset 8, -16
	.cfi_offset 9, -24
	.cfi_offset 18, -32
	addi	s0,sp,64
	.cfi_def_cfa 8, 0
	sd	a0,-56(s0)
	ld	a5,-56(s0)
	ld	s1,0(a5)
	ld	a5,-56(s0)
	ld	a4,0(a5)
	li	a5,8192
	addi	a5,a5,-1992
	add	s2,a4,a5
	ld	a5,-56(s0)
	ld	a4,0(a5)
	li	a5,8192
	addi	a5,a5,-1992
	add	a5,a4,a5
	mv	a0,a5
	call	_ZNKSt6bitsetILm8EE4sizeEv
	mv	a5,a0
	addi	a5,a5,-1
	mv	a1,a5
	mv	a0,s2
	call	_ZNKSt6bitsetILm8EE4testEm
	mv	a5,a0
	beq	a5,zero,.L424
	addi	a5,s0,-40
	li	a1,0
	mv	a0,a5
	call	_ZNSt6bitsetILm8EEC1Ey
	li	a5,8192
	add	a5,s1,a5
	ld	a4,-40(s0)
	sd	a4,-1992(a5)
	j	.L425
.L424:
	ld	a5,-56(s0)
	ld	a3,0(a5)
	li	a5,8192
	add	a5,s1,a5
	li	a4,8192
	add	a4,a3,a4
	ld	a4,-1992(a4)
	sd	a4,-1992(a5)
.L425:
	li	a5,0
	mv	a0,a5
	ld	ra,56(sp)
	.cfi_restore 1
	ld	s0,48(sp)
	.cfi_restore 8
	.cfi_def_cfa 2, 64
	ld	s1,40(sp)
	.cfi_restore 9
	ld	s2,32(sp)
	.cfi_restore 18
	addi	sp,sp,64
	.cfi_def_cfa_offset 0
	jr	ra
	.cfi_endproc
.LFE2824:
	.size	_ZZN7Bimorph4AddrEbENKUlvE_clEv, .-_ZZN7Bimorph4AddrEbENKUlvE_clEv
	.section	.text._ZNKSt6bitsetILm8EE4sizeEv,"axG",@progbits,_ZNKSt6bitsetILm8EE4sizeEv,comdat
	.align	1
	.weak	_ZNKSt6bitsetILm8EE4sizeEv
	.type	_ZNKSt6bitsetILm8EE4sizeEv, @function
_ZNKSt6bitsetILm8EE4sizeEv:
.LFB2825:
	.cfi_startproc
	addi	sp,sp,-32
	.cfi_def_cfa_offset 32
	sd	s0,24(sp)
	.cfi_offset 8, -8
	addi	s0,sp,32
	.cfi_def_cfa 8, 0
	sd	a0,-24(s0)
	li	a5,8
	mv	a0,a5
	ld	s0,24(sp)
	.cfi_restore 8
	.cfi_def_cfa 2, 32
	addi	sp,sp,32
	.cfi_def_cfa_offset 0
	jr	ra
	.cfi_endproc
.LFE2825:
	.size	_ZNKSt6bitsetILm8EE4sizeEv, .-_ZNKSt6bitsetILm8EE4sizeEv
	.section	.rodata
	.align	3
.LC58:
	.string	"\320\236\320\250\320\230\320\221\320\232\320\220 \321\203\321\201\321\202\320\260\320\275\320\276\320\262\320\272\320\270 \321\201\320\273\320\265\320\264\321\203\321\216\321\211\320\265\320\263\320\276 \320\261\320\270\321\202\320\260 "
	.section	.text._ZZN7Bimorph4AddrEbENKUlvE0_clEv,"axG",@progbits,_ZZN7Bimorph4AddrEbENKUlvE0_clEv,comdat
	.align	1
	.weak	_ZZN7Bimorph4AddrEbENKUlvE0_clEv
	.type	_ZZN7Bimorph4AddrEbENKUlvE0_clEv, @function
_ZZN7Bimorph4AddrEbENKUlvE0_clEv:
.LFB2826:
	.cfi_startproc
	.cfi_personality 0x9b,DW.ref.__gxx_personality_v0
	.cfi_lsda 0x1b,.LLSDA2826
	addi	sp,sp,-224
	.cfi_def_cfa_offset 224
	sd	ra,216(sp)
	sd	s0,208(sp)
	sd	s1,200(sp)
	.cfi_offset 1, -8
	.cfi_offset 8, -16
	.cfi_offset 9, -24
	addi	s0,sp,224
	.cfi_def_cfa 8, 0
	sd	a0,-216(s0)
	ld	a5,-216(s0)
	ld	a4,0(a5)
	li	a5,8192
	addi	a5,a5,-1992
	add	a5,a4,a5
	mv	a0,a5
	call	_ZNKSt6bitsetILm8EE4sizeEv
	mv	a5,a0
	sext.w	a5,a5
	addiw	a5,a5,-2
	sext.w	a5,a5
	sext.w	a5,a5
	sw	a5,-204(s0)
.L433:
	lw	a5,-204(s0)
	blt	a5,zero,.L430
	ld	a5,-216(s0)
	ld	a4,0(a5)
	li	a5,8192
	addi	a5,a5,-1992
	add	a5,a4,a5
	lw	a4,-204(s0)
	mv	a1,a4
	mv	a0,a5
.LEHB174:
	call	_ZNKSt6bitsetILm8EE4testEm
	mv	a5,a0
	xori	a5,a5,1
	andi	a5,a5,0xff
	bne	a5,zero,.L431
	ld	a5,-216(s0)
	ld	a5,0(a5)
	sd	a5,-200(s0)
	addi	a5,s0,-204
	sd	a5,-192(s0)
	addi	a5,s0,-200
	mv	a0,a5
	call	_ZZZN7Bimorph4AddrEbENKUlvE0_clEvENKUlvE_clEv
	mv	a5,a0
	beq	a5,zero,.L432
	lw	a4,-204(s0)
	addi	a5,s0,-152
	mv	a1,a4
	mv	a0,a5
	call	_ZNSt7__cxx119to_stringEi
.LEHE174:
	addi	a4,s0,-184
	addi	a5,s0,-152
	mv	a2,a5
	lui	a5,%hi(.LC58)
	addi	a1,a5,%lo(.LC58)
	mv	a0,a4
.LEHB175:
	call	_ZStplIcSt11char_traitsIcESaIcEENSt7__cxx1112basic_stringIT_T0_T1_EEPKS5_OS8_
.LEHE175:
	addi	a5,s0,-184
	li	a1,96
	mv	a0,a5
.LEHB176:
	call	_Z4mpreNSt7__cxx1112basic_stringIcSt11char_traitsIcESaIcEEEi
.LEHE176:
	addi	a5,s0,-184
	mv	a0,a5
	call	_ZNSt7__cxx1112basic_stringIcSt11char_traitsIcESaIcEED1Ev
	addi	a5,s0,-152
	mv	a0,a5
	call	_ZNSt7__cxx1112basic_stringIcSt11char_traitsIcESaIcEED1Ev
	j	.L431
.L432:
	ld	a5,-216(s0)
	ld	a5,8(a5)
	sd	a5,-120(s0)
	ld	a5,-216(s0)
	ld	a5,0(a5)
	sd	a5,-112(s0)
	addi	a5,s0,-204
	sd	a5,-104(s0)
	addi	a5,s0,-120
	mv	a0,a5
.LEHB177:
	call	_ZZZN7Bimorph4AddrEbENKUlvE0_clEvENKUlvE0_clEv
	mv	a5,a0
	beq	a5,zero,.L431
	lw	a4,-204(s0)
	addi	a5,s0,-64
	mv	a1,a4
	mv	a0,a5
	call	_ZNSt7__cxx119to_stringEi
.LEHE177:
	addi	a4,s0,-96
	addi	a5,s0,-64
	mv	a2,a5
	lui	a5,%hi(.LC58)
	addi	a1,a5,%lo(.LC58)
	mv	a0,a4
.LEHB178:
	call	_ZStplIcSt11char_traitsIcESaIcEENSt7__cxx1112basic_stringIT_T0_T1_EEPKS5_OS8_
.LEHE178:
	addi	a5,s0,-96
	li	a1,97
	mv	a0,a5
.LEHB179:
	call	_Z4mpreNSt7__cxx1112basic_stringIcSt11char_traitsIcESaIcEEEi
.LEHE179:
	addi	a5,s0,-96
	mv	a0,a5
	call	_ZNSt7__cxx1112basic_stringIcSt11char_traitsIcESaIcEED1Ev
	addi	a5,s0,-64
	mv	a0,a5
	call	_ZNSt7__cxx1112basic_stringIcSt11char_traitsIcESaIcEED1Ev
.L431:
	lw	a5,-204(s0)
	addiw	a5,a5,-1
	sext.w	a5,a5
	sw	a5,-204(s0)
	j	.L433
.L430:
	li	a5,0
	j	.L443
.L440:
	mv	s1,a0
	addi	a5,s0,-184
	mv	a0,a5
	call	_ZNSt7__cxx1112basic_stringIcSt11char_traitsIcESaIcEED1Ev
	j	.L436
.L439:
	mv	s1,a0
.L436:
	addi	a5,s0,-152
	mv	a0,a5
	call	_ZNSt7__cxx1112basic_stringIcSt11char_traitsIcESaIcEED1Ev
	mv	a5,s1
	mv	a0,a5
.LEHB180:
	call	_Unwind_Resume
.L442:
	mv	s1,a0
	addi	a5,s0,-96
	mv	a0,a5
	call	_ZNSt7__cxx1112basic_stringIcSt11char_traitsIcESaIcEED1Ev
	j	.L438
.L441:
	mv	s1,a0
.L438:
	addi	a5,s0,-64
	mv	a0,a5
	call	_ZNSt7__cxx1112basic_stringIcSt11char_traitsIcESaIcEED1Ev
	mv	a5,s1
	mv	a0,a5
	call	_Unwind_Resume
.LEHE180:
.L443:
	mv	a0,a5
	ld	ra,216(sp)
	.cfi_restore 1
	ld	s0,208(sp)
	.cfi_restore 8
	.cfi_def_cfa 2, 224
	ld	s1,200(sp)
	.cfi_restore 9
	addi	sp,sp,224
	.cfi_def_cfa_offset 0
	jr	ra
	.cfi_endproc
.LFE2826:
	.section	.gcc_except_table
.LLSDA2826:
	.byte	0xff
	.byte	0xff
	.byte	0x3
	.byte	0x5b
	.4byte	.LEHB174-.LFB2826
	.4byte	.LEHE174-.LEHB174
	.4byte	0
	.byte	0
	.4byte	.LEHB175-.LFB2826
	.4byte	.LEHE175-.LEHB175
	.4byte	.L439-.LFB2826
	.byte	0
	.4byte	.LEHB176-.LFB2826
	.4byte	.LEHE176-.LEHB176
	.4byte	.L440-.LFB2826
	.byte	0
	.4byte	.LEHB177-.LFB2826
	.4byte	.LEHE177-.LEHB177
	.4byte	0
	.byte	0
	.4byte	.LEHB178-.LFB2826
	.4byte	.LEHE178-.LEHB178
	.4byte	.L441-.LFB2826
	.byte	0
	.4byte	.LEHB179-.LFB2826
	.4byte	.LEHE179-.LEHB179
	.4byte	.L442-.LFB2826
	.byte	0
	.4byte	.LEHB180-.LFB2826
	.4byte	.LEHE180-.LEHB180
	.4byte	0
	.byte	0
	.section	.text._ZZN7Bimorph4AddrEbENKUlvE0_clEv,"axG",@progbits,_ZZN7Bimorph4AddrEbENKUlvE0_clEv,comdat
	.size	_ZZN7Bimorph4AddrEbENKUlvE0_clEv, .-_ZZN7Bimorph4AddrEbENKUlvE0_clEv
	.section	.text._ZZZN7Bimorph4AddrEbENKUlvE0_clEvENKUlvE_clEv,"axG",@progbits,_ZZZN7Bimorph4AddrEbENKUlvE0_clEvENKUlvE_clEv,comdat
	.align	1
	.weak	_ZZZN7Bimorph4AddrEbENKUlvE0_clEvENKUlvE_clEv
	.type	_ZZZN7Bimorph4AddrEbENKUlvE0_clEvENKUlvE_clEv, @function
_ZZZN7Bimorph4AddrEbENKUlvE0_clEvENKUlvE_clEv:
.LFB2827:
	.cfi_startproc
	addi	sp,sp,-32
	.cfi_def_cfa_offset 32
	sd	ra,24(sp)
	sd	s0,16(sp)
	.cfi_offset 1, -8
	.cfi_offset 8, -16
	addi	s0,sp,32
	.cfi_def_cfa 8, 0
	sd	a0,-24(s0)
	ld	a5,-24(s0)
	ld	a4,0(a5)
	li	a5,8192
	addi	a5,a5,-1992
	add	a4,a4,a5
	ld	a5,-24(s0)
	ld	a5,8(a5)
	lw	a5,0(a5)
	addiw	a5,a5,1
	sext.w	a5,a5
	li	a2,1
	mv	a1,a5
	mv	a0,a4
	call	_ZNSt6bitsetILm8EE3setEmb
	ld	a5,-24(s0)
	ld	a4,0(a5)
	li	a5,8192
	addi	a5,a5,-1992
	add	a4,a4,a5
	ld	a5,-24(s0)
	ld	a5,8(a5)
	lw	a5,0(a5)
	addiw	a5,a5,1
	sext.w	a5,a5
	mv	a1,a5
	mv	a0,a4
	call	_ZNKSt6bitsetILm8EE4testEm
	mv	a5,a0
	xori	a5,a5,1
	andi	a5,a5,0xff
	mv	a0,a5
	ld	ra,24(sp)
	.cfi_restore 1
	ld	s0,16(sp)
	.cfi_restore 8
	.cfi_def_cfa 2, 32
	addi	sp,sp,32
	.cfi_def_cfa_offset 0
	jr	ra
	.cfi_endproc
.LFE2827:
	.size	_ZZZN7Bimorph4AddrEbENKUlvE0_clEvENKUlvE_clEv, .-_ZZZN7Bimorph4AddrEbENKUlvE0_clEvENKUlvE_clEv
	.section	.text._ZZZN7Bimorph4AddrEbENKUlvE0_clEvENKUlvE0_clEv,"axG",@progbits,_ZZZN7Bimorph4AddrEbENKUlvE0_clEvENKUlvE0_clEv,comdat
	.align	1
	.weak	_ZZZN7Bimorph4AddrEbENKUlvE0_clEvENKUlvE0_clEv
	.type	_ZZZN7Bimorph4AddrEbENKUlvE0_clEvENKUlvE0_clEv, @function
_ZZZN7Bimorph4AddrEbENKUlvE0_clEvENKUlvE0_clEv:
.LFB2828:
	.cfi_startproc
	addi	sp,sp,-32
	.cfi_def_cfa_offset 32
	sd	ra,24(sp)
	sd	s0,16(sp)
	.cfi_offset 1, -8
	.cfi_offset 8, -16
	addi	s0,sp,32
	.cfi_def_cfa 8, 0
	sd	a0,-24(s0)
	ld	a5,-24(s0)
	ld	a5,0(a5)
	lbu	a5,0(a5)
	beq	a5,zero,.L447
	ld	a5,-24(s0)
	ld	a4,8(a5)
	li	a5,8192
	addi	a5,a5,-1992
	add	a4,a4,a5
	ld	a5,-24(s0)
	ld	a5,16(a5)
	lw	a5,0(a5)
	li	a2,1
	mv	a1,a5
	mv	a0,a4
	call	_ZNSt6bitsetILm8EE3setEmb
	j	.L448
.L447:
	ld	a5,-24(s0)
	ld	a4,8(a5)
	li	a5,8192
	addi	a5,a5,-1992
	add	a4,a4,a5
	ld	a5,-24(s0)
	ld	a5,16(a5)
	lw	a5,0(a5)
	mv	a1,a5
	mv	a0,a4
	call	_ZNSt6bitsetILm8EE5resetEm
.L448:
	ld	a5,-24(s0)
	ld	a4,8(a5)
	li	a5,8192
	addi	a5,a5,-1992
	add	a4,a4,a5
	ld	a5,-24(s0)
	ld	a5,16(a5)
	lw	a5,0(a5)
	addiw	a5,a5,1
	sext.w	a5,a5
	mv	a1,a5
	mv	a0,a4
	call	_ZNKSt6bitsetILm8EE4testEm
	mv	a5,a0
	xori	a5,a5,1
	andi	a5,a5,0xff
	mv	a0,a5
	ld	ra,24(sp)
	.cfi_restore 1
	ld	s0,16(sp)
	.cfi_restore 8
	.cfi_def_cfa 2, 32
	addi	sp,sp,32
	.cfi_def_cfa_offset 0
	jr	ra
	.cfi_endproc
.LFE2828:
	.size	_ZZZN7Bimorph4AddrEbENKUlvE0_clEvENKUlvE0_clEv, .-_ZZZN7Bimorph4AddrEbENKUlvE0_clEvENKUlvE0_clEv
	.section	.rodata
	.align	3
.LC59:
	.string	"\320\236\320\250\320\230\320\221\320\232\320\220 \320\276\320\261\320\275\321\203\320\273\320\265\320\275\320\270\321\217 \320\260\320\264\321\200\320\265\321\201\320\260"
	.align	3
.LC60:
	.string	"\320\236\320\250\320\230\320\221\320\232\320\220 \320\277\320\276\320\273\321\203\321\207\320\265\320\275\320\270\321\217 \320\260\320\264\321\200\320\265\321\201\320\260 \321\201\321\201\321\213\320\273\320\272\320\270"
	.align	3
.LC61:
	.string	"\320\236\320\250\320\230\320\221\320\232\320\220 \320\262\321\213\320\261\320\276\321\200\320\272\320\270 \320\261\320\273\320\276\320\272\320\260"
	.align	3
.LC62:
	.string	"\320\236\320\250\320\230\320\221\320\232\320\220 \320\237\320\265\321\200\320\265\320\267\320\260\320\263\321\200\321\203\320\267\320\272\320\270 \320\261\321\203\321\204\320\265\321\200\320\260 offset="
	.align	3
.LC63:
	.string	"\320\227\320\260\320\263\321\200\321\203\320\266\320\260\320\265\320\274 \320\261\321\203\321\204\320\265\321\200 "
	.align	3
.LC64:
	.string	" size="
	.section	.text._ZZN7Bimorph4AddrEbENKUlvE1_clEv,"axG",@progbits,_ZZN7Bimorph4AddrEbENKUlvE1_clEv,comdat
	.align	1
	.weak	_ZZN7Bimorph4AddrEbENKUlvE1_clEv
	.type	_ZZN7Bimorph4AddrEbENKUlvE1_clEv, @function
_ZZN7Bimorph4AddrEbENKUlvE1_clEv:
.LFB2829:
	.cfi_startproc
	.cfi_personality 0x9b,DW.ref.__gxx_personality_v0
	.cfi_lsda 0x1b,.LLSDA2829
	addi	sp,sp,-496
	.cfi_def_cfa_offset 496
	sd	ra,488(sp)
	sd	s0,480(sp)
	sd	s1,472(sp)
	.cfi_offset 1, -8
	.cfi_offset 8, -16
	.cfi_offset 9, -24
	addi	s0,sp,496
	.cfi_def_cfa 8, 0
	sd	a0,-488(s0)
	ld	a5,-488(s0)
	ld	a4,0(a5)
	li	a5,8192
	addi	a5,a5,-1992
	add	a5,a4,a5
	mv	a0,a5
	call	_ZNKSt6bitsetILm8EE4noneEv
	mv	a5,a0
	xori	a5,a5,1
	andi	a5,a5,0xff
	bne	a5,zero,.L451
	ld	a5,-488(s0)
	ld	a5,0(a5)
	sd	a5,-472(s0)
	addi	a5,s0,-472
	mv	a0,a5
	call	_ZZZN7Bimorph4AddrEbENKUlvE1_clEvENKUlvE_clEv
	mv	a5,a0
	beq	a5,zero,.L452
	addi	a5,s0,-432
	mv	a0,a5
	call	_ZNSaIcEC1Ev
	addi	a5,s0,-432
	addi	a4,s0,-464
	mv	a2,a5
	lui	a5,%hi(.LC59)
	addi	a1,a5,%lo(.LC59)
	mv	a0,a4
.LEHB181:
	call	_ZNSt7__cxx1112basic_stringIcSt11char_traitsIcESaIcEEC1EPKcRKS3_
.LEHE181:
	addi	a5,s0,-464
	li	a1,102
	mv	a0,a5
.LEHB182:
	call	_Z4mpreNSt7__cxx1112basic_stringIcSt11char_traitsIcESaIcEEEi
.LEHE182:
	addi	a5,s0,-464
	mv	a0,a5
	call	_ZNSt7__cxx1112basic_stringIcSt11char_traitsIcESaIcEED1Ev
	addi	a5,s0,-432
	mv	a0,a5
	call	_ZNSaIcED1Ev
	j	.L451
.L452:
	ld	a5,-488(s0)
	ld	a5,8(a5)
	sd	a5,-424(s0)
	addi	a5,s0,-424
	mv	a0,a5
.LEHB183:
	call	_ZZZN7Bimorph4AddrEbENKUlvE1_clEvENKUlvE0_clEv
.LEHE183:
	mv	a5,a0
	beq	a5,zero,.L453
	addi	a5,s0,-384
	mv	a0,a5
	call	_ZNSaIcEC1Ev
	addi	a5,s0,-384
	addi	a4,s0,-416
	mv	a2,a5
	lui	a5,%hi(.LC60)
	addi	a1,a5,%lo(.LC60)
	mv	a0,a4
.LEHB184:
	call	_ZNSt7__cxx1112basic_stringIcSt11char_traitsIcESaIcEEC1EPKcRKS3_
.LEHE184:
	addi	a5,s0,-416
	li	a1,103
	mv	a0,a5
.LEHB185:
	call	_Z4mpreNSt7__cxx1112basic_stringIcSt11char_traitsIcESaIcEEEi
.LEHE185:
	addi	a5,s0,-416
	mv	a0,a5
	call	_ZNSt7__cxx1112basic_stringIcSt11char_traitsIcESaIcEED1Ev
	addi	a5,s0,-384
	mv	a0,a5
	call	_ZNSaIcED1Ev
	j	.L451
.L453:
	ld	a5,-488(s0)
	ld	a5,16(a5)
	sd	a5,-376(s0)
	ld	a5,-488(s0)
	ld	a5,0(a5)
	sd	a5,-368(s0)
	ld	a5,-488(s0)
	ld	a5,8(a5)
	sd	a5,-360(s0)
	addi	a5,s0,-376
	mv	a0,a5
.LEHB186:
	call	_ZZZN7Bimorph4AddrEbENKUlvE1_clEvENKUlvE1_clEv
.LEHE186:
	mv	a5,a0
	beq	a5,zero,.L454
	addi	a5,s0,-320
	mv	a0,a5
	call	_ZNSaIcEC1Ev
	addi	a5,s0,-320
	addi	a4,s0,-352
	mv	a2,a5
	lui	a5,%hi(.LC61)
	addi	a1,a5,%lo(.LC61)
	mv	a0,a4
.LEHB187:
	call	_ZNSt7__cxx1112basic_stringIcSt11char_traitsIcESaIcEEC1EPKcRKS3_
.LEHE187:
	addi	a5,s0,-352
	li	a1,104
	mv	a0,a5
.LEHB188:
	call	_Z4mpreNSt7__cxx1112basic_stringIcSt11char_traitsIcESaIcEEEi
.LEHE188:
	addi	a5,s0,-352
	mv	a0,a5
	call	_ZNSt7__cxx1112basic_stringIcSt11char_traitsIcESaIcEED1Ev
	addi	a5,s0,-320
	mv	a0,a5
	call	_ZNSaIcED1Ev
	j	.L451
.L454:
	ld	a5,-488(s0)
	ld	a5,24(a5)
	sd	a5,-312(s0)
	ld	a5,-488(s0)
	ld	a5,16(a5)
	sd	a5,-304(s0)
	addi	a5,s0,-312
	mv	a0,a5
	call	_ZZZN7Bimorph4AddrEbENKUlvE1_clEvENKUlvE2_clEv
	mv	a5,a0
	beq	a5,zero,.L455
	ld	a5,-488(s0)
	ld	a5,24(a5)
	mv	a0,a5
	call	_ZNKSt6bitsetILm32EE8to_ulongEv
	mv	a4,a0
	addi	a5,s0,-264
	mv	a1,a4
	mv	a0,a5
.LEHB189:
	call	_ZNSt7__cxx119to_stringEm
.LEHE189:
	addi	a4,s0,-296
	addi	a5,s0,-264
	mv	a2,a5
	lui	a5,%hi(.LC62)
	addi	a1,a5,%lo(.LC62)
	mv	a0,a4
.LEHB190:
	call	_ZStplIcSt11char_traitsIcESaIcEENSt7__cxx1112basic_stringIT_T0_T1_EEPKS5_OS8_
.LEHE190:
	addi	a5,s0,-296
	li	a1,105
	mv	a0,a5
.LEHB191:
	call	_Z4mpreNSt7__cxx1112basic_stringIcSt11char_traitsIcESaIcEEEi
.LEHE191:
	addi	a5,s0,-296
	mv	a0,a5
	call	_ZNSt7__cxx1112basic_stringIcSt11char_traitsIcESaIcEED1Ev
	addi	a5,s0,-264
	mv	a0,a5
	call	_ZNSt7__cxx1112basic_stringIcSt11char_traitsIcESaIcEED1Ev
	j	.L451
.L455:
	ld	a5,-488(s0)
	ld	a4,0(a5)
	ld	a5,-488(s0)
	ld	a5,24(a5)
	li	a2,0
	ld	a1,0(a5)
	mv	a0,a4
.LEHB192:
	call	_ZN7Bimorph3BufESt6bitsetILm32EEb
.LEHE192:
	mv	a5,a0
	xori	a5,a5,1
	andi	a5,a5,0xff
	beq	a5,zero,.L456
	addi	a5,s0,-200
	mv	a0,a5
	call	_ZNSaIcEC1Ev
	addi	a5,s0,-200
	addi	a4,s0,-232
	mv	a2,a5
	lui	a5,%hi(.LC56)
	addi	a1,a5,%lo(.LC56)
	mv	a0,a4
.LEHB193:
	call	_ZNSt7__cxx1112basic_stringIcSt11char_traitsIcESaIcEEC1EPKcRKS3_
.LEHE193:
	addi	a5,s0,-232
	li	a1,106
	mv	a0,a5
.LEHB194:
	call	_Z4mpreNSt7__cxx1112basic_stringIcSt11char_traitsIcESaIcEEEi
.LEHE194:
	addi	a5,s0,-232
	mv	a0,a5
	call	_ZNSt7__cxx1112basic_stringIcSt11char_traitsIcESaIcEED1Ev
	addi	a5,s0,-200
	mv	a0,a5
	call	_ZNSaIcED1Ev
	j	.L451
.L456:
	ld	a5,-488(s0)
	ld	a5,0(a5)
	addi	a5,a5,48
	mv	a0,a5
	call	_ZNKSt6bitsetILm32EE8to_ulongEv
	mv	a4,a0
	addi	a5,s0,-96
	mv	a1,a4
	mv	a0,a5
.LEHB195:
	call	_ZNSt7__cxx119to_stringEm
.LEHE195:
	addi	a4,s0,-128
	addi	a5,s0,-96
	mv	a2,a5
	lui	a5,%hi(.LC63)
	addi	a1,a5,%lo(.LC63)
	mv	a0,a4
.LEHB196:
	call	_ZStplIcSt11char_traitsIcESaIcEENSt7__cxx1112basic_stringIT_T0_T1_EEPKS5_OS8_
.LEHE196:
	addi	a4,s0,-160
	addi	a3,s0,-128
	lui	a5,%hi(.LC64)
	addi	a2,a5,%lo(.LC64)
	mv	a1,a3
	mv	a0,a4
.LEHB197:
	call	_ZStplIcSt11char_traitsIcESaIcEENSt7__cxx1112basic_stringIT_T0_T1_EEOS8_PKS5_
.LEHE197:
	addi	a4,s0,-64
	li	a5,8192
	addi	a1,a5,-2048
	mv	a0,a4
.LEHB198:
	call	_ZNSt7__cxx119to_stringEm
.LEHE198:
	addi	a5,s0,-192
	addi	a3,s0,-64
	addi	a4,s0,-160
	mv	a2,a3
	mv	a1,a4
	mv	a0,a5
.LEHB199:
	call	_ZStplIcSt11char_traitsIcESaIcEENSt7__cxx1112basic_stringIT_T0_T1_EEOS8_S9_
.LEHE199:
	addi	a5,s0,-192
	li	a1,107
	mv	a0,a5
.LEHB200:
	call	_Z4mpreNSt7__cxx1112basic_stringIcSt11char_traitsIcESaIcEEEi
.LEHE200:
	addi	a5,s0,-192
	mv	a0,a5
	call	_ZNSt7__cxx1112basic_stringIcSt11char_traitsIcESaIcEED1Ev
	addi	a5,s0,-64
	mv	a0,a5
	call	_ZNSt7__cxx1112basic_stringIcSt11char_traitsIcESaIcEED1Ev
	addi	a5,s0,-160
	mv	a0,a5
	call	_ZNSt7__cxx1112basic_stringIcSt11char_traitsIcESaIcEED1Ev
	addi	a5,s0,-128
	mv	a0,a5
	call	_ZNSt7__cxx1112basic_stringIcSt11char_traitsIcESaIcEED1Ev
	addi	a5,s0,-96
	mv	a0,a5
	call	_ZNSt7__cxx1112basic_stringIcSt11char_traitsIcESaIcEED1Ev
.L451:
	ld	a5,-488(s0)
	ld	a4,0(a5)
	li	a5,8192
	addi	a5,a5,-1992
	add	a5,a4,a5
	mv	a0,a5
	call	_ZNKSt6bitsetILm8EE4noneEv
	mv	a5,a0
	j	.L488
.L474:
	mv	s1,a0
	addi	a5,s0,-464
	mv	a0,a5
	call	_ZNSt7__cxx1112basic_stringIcSt11char_traitsIcESaIcEED1Ev
	j	.L459
.L473:
	mv	s1,a0
.L459:
	addi	a5,s0,-432
	mv	a0,a5
	call	_ZNSaIcED1Ev
	mv	a5,s1
	mv	a0,a5
.LEHB201:
	call	_Unwind_Resume
.L476:
	mv	s1,a0
	addi	a5,s0,-416
	mv	a0,a5
	call	_ZNSt7__cxx1112basic_stringIcSt11char_traitsIcESaIcEED1Ev
	j	.L461
.L475:
	mv	s1,a0
.L461:
	addi	a5,s0,-384
	mv	a0,a5
	call	_ZNSaIcED1Ev
	mv	a5,s1
	mv	a0,a5
	call	_Unwind_Resume
.L478:
	mv	s1,a0
	addi	a5,s0,-352
	mv	a0,a5
	call	_ZNSt7__cxx1112basic_stringIcSt11char_traitsIcESaIcEED1Ev
	j	.L463
.L477:
	mv	s1,a0
.L463:
	addi	a5,s0,-320
	mv	a0,a5
	call	_ZNSaIcED1Ev
	mv	a5,s1
	mv	a0,a5
	call	_Unwind_Resume
.L480:
	mv	s1,a0
	addi	a5,s0,-296
	mv	a0,a5
	call	_ZNSt7__cxx1112basic_stringIcSt11char_traitsIcESaIcEED1Ev
	j	.L465
.L479:
	mv	s1,a0
.L465:
	addi	a5,s0,-264
	mv	a0,a5
	call	_ZNSt7__cxx1112basic_stringIcSt11char_traitsIcESaIcEED1Ev
	mv	a5,s1
	mv	a0,a5
	call	_Unwind_Resume
.L482:
	mv	s1,a0
	addi	a5,s0,-232
	mv	a0,a5
	call	_ZNSt7__cxx1112basic_stringIcSt11char_traitsIcESaIcEED1Ev
	j	.L467
.L481:
	mv	s1,a0
.L467:
	addi	a5,s0,-200
	mv	a0,a5
	call	_ZNSaIcED1Ev
	mv	a5,s1
	mv	a0,a5
	call	_Unwind_Resume
.L487:
	mv	s1,a0
	addi	a5,s0,-192
	mv	a0,a5
	call	_ZNSt7__cxx1112basic_stringIcSt11char_traitsIcESaIcEED1Ev
	j	.L469
.L486:
	mv	s1,a0
.L469:
	addi	a5,s0,-64
	mv	a0,a5
	call	_ZNSt7__cxx1112basic_stringIcSt11char_traitsIcESaIcEED1Ev
	j	.L470
.L485:
	mv	s1,a0
.L470:
	addi	a5,s0,-160
	mv	a0,a5
	call	_ZNSt7__cxx1112basic_stringIcSt11char_traitsIcESaIcEED1Ev
	j	.L471
.L484:
	mv	s1,a0
.L471:
	addi	a5,s0,-128
	mv	a0,a5
	call	_ZNSt7__cxx1112basic_stringIcSt11char_traitsIcESaIcEED1Ev
	j	.L472
.L483:
	mv	s1,a0
.L472:
	addi	a5,s0,-96
	mv	a0,a5
	call	_ZNSt7__cxx1112basic_stringIcSt11char_traitsIcESaIcEED1Ev
	mv	a5,s1
	mv	a0,a5
	call	_Unwind_Resume
.LEHE201:
.L488:
	mv	a0,a5
	ld	ra,488(sp)
	.cfi_restore 1
	ld	s0,480(sp)
	.cfi_restore 8
	.cfi_def_cfa 2, 496
	ld	s1,472(sp)
	.cfi_restore 9
	addi	sp,sp,496
	.cfi_def_cfa_offset 0
	jr	ra
	.cfi_endproc
.LFE2829:
	.section	.gcc_except_table
.LLSDA2829:
	.byte	0xff
	.byte	0xff
	.byte	0x3
	.byte	0x91,0x2
	.4byte	.LEHB181-.LFB2829
	.4byte	.LEHE181-.LEHB181
	.4byte	.L473-.LFB2829
	.byte	0
	.4byte	.LEHB182-.LFB2829
	.4byte	.LEHE182-.LEHB182
	.4byte	.L474-.LFB2829
	.byte	0
	.4byte	.LEHB183-.LFB2829
	.4byte	.LEHE183-.LEHB183
	.4byte	0
	.byte	0
	.4byte	.LEHB184-.LFB2829
	.4byte	.LEHE184-.LEHB184
	.4byte	.L475-.LFB2829
	.byte	0
	.4byte	.LEHB185-.LFB2829
	.4byte	.LEHE185-.LEHB185
	.4byte	.L476-.LFB2829
	.byte	0
	.4byte	.LEHB186-.LFB2829
	.4byte	.LEHE186-.LEHB186
	.4byte	0
	.byte	0
	.4byte	.LEHB187-.LFB2829
	.4byte	.LEHE187-.LEHB187
	.4byte	.L477-.LFB2829
	.byte	0
	.4byte	.LEHB188-.LFB2829
	.4byte	.LEHE188-.LEHB188
	.4byte	.L478-.LFB2829
	.byte	0
	.4byte	.LEHB189-.LFB2829
	.4byte	.LEHE189-.LEHB189
	.4byte	0
	.byte	0
	.4byte	.LEHB190-.LFB2829
	.4byte	.LEHE190-.LEHB190
	.4byte	.L479-.LFB2829
	.byte	0
	.4byte	.LEHB191-.LFB2829
	.4byte	.LEHE191-.LEHB191
	.4byte	.L480-.LFB2829
	.byte	0
	.4byte	.LEHB192-.LFB2829
	.4byte	.LEHE192-.LEHB192
	.4byte	0
	.byte	0
	.4byte	.LEHB193-.LFB2829
	.4byte	.LEHE193-.LEHB193
	.4byte	.L481-.LFB2829
	.byte	0
	.4byte	.LEHB194-.LFB2829
	.4byte	.LEHE194-.LEHB194
	.4byte	.L482-.LFB2829
	.byte	0
	.4byte	.LEHB195-.LFB2829
	.4byte	.LEHE195-.LEHB195
	.4byte	0
	.byte	0
	.4byte	.LEHB196-.LFB2829
	.4byte	.LEHE196-.LEHB196
	.4byte	.L483-.LFB2829
	.byte	0
	.4byte	.LEHB197-.LFB2829
	.4byte	.LEHE197-.LEHB197
	.4byte	.L484-.LFB2829
	.byte	0
	.4byte	.LEHB198-.LFB2829
	.4byte	.LEHE198-.LEHB198
	.4byte	.L485-.LFB2829
	.byte	0
	.4byte	.LEHB199-.LFB2829
	.4byte	.LEHE199-.LEHB199
	.4byte	.L486-.LFB2829
	.byte	0
	.4byte	.LEHB200-.LFB2829
	.4byte	.LEHE200-.LEHB200
	.4byte	.L487-.LFB2829
	.byte	0
	.4byte	.LEHB201-.LFB2829
	.4byte	.LEHE201-.LEHB201
	.4byte	0
	.byte	0
	.section	.text._ZZN7Bimorph4AddrEbENKUlvE1_clEv,"axG",@progbits,_ZZN7Bimorph4AddrEbENKUlvE1_clEv,comdat
	.size	_ZZN7Bimorph4AddrEbENKUlvE1_clEv, .-_ZZN7Bimorph4AddrEbENKUlvE1_clEv
	.section	.text._ZZZN7Bimorph4AddrEbENKUlvE1_clEvENKUlvE_clEv,"axG",@progbits,_ZZZN7Bimorph4AddrEbENKUlvE1_clEvENKUlvE_clEv,comdat
	.align	1
	.weak	_ZZZN7Bimorph4AddrEbENKUlvE1_clEvENKUlvE_clEv
	.type	_ZZZN7Bimorph4AddrEbENKUlvE1_clEvENKUlvE_clEv, @function
_ZZZN7Bimorph4AddrEbENKUlvE1_clEvENKUlvE_clEv:
.LFB2830:
	.cfi_startproc
	addi	sp,sp,-48
	.cfi_def_cfa_offset 48
	sd	ra,40(sp)
	sd	s0,32(sp)
	.cfi_offset 1, -8
	.cfi_offset 8, -16
	addi	s0,sp,48
	.cfi_def_cfa 8, 0
	sd	a0,-40(s0)
	addi	a5,s0,-24
	li	a1,1
	mv	a0,a5
	call	_ZNSt6bitsetILm8EEC1Ey
	ld	a5,-40(s0)
	ld	a4,0(a5)
	li	a5,8192
	add	a5,a4,a5
	ld	a4,-24(s0)
	sd	a4,-1992(a5)
	li	a5,0
	mv	a0,a5
	ld	ra,40(sp)
	.cfi_restore 1
	ld	s0,32(sp)
	.cfi_restore 8
	.cfi_def_cfa 2, 48
	addi	sp,sp,48
	.cfi_def_cfa_offset 0
	jr	ra
	.cfi_endproc
.LFE2830:
	.size	_ZZZN7Bimorph4AddrEbENKUlvE1_clEvENKUlvE_clEv, .-_ZZZN7Bimorph4AddrEbENKUlvE1_clEvENKUlvE_clEv
	.section	.text._ZZZN7Bimorph4AddrEbENKUlvE1_clEvENKUlvE0_clEv,"axG",@progbits,_ZZZN7Bimorph4AddrEbENKUlvE1_clEvENKUlvE0_clEv,comdat
	.align	1
	.weak	_ZZZN7Bimorph4AddrEbENKUlvE1_clEvENKUlvE0_clEv
	.type	_ZZZN7Bimorph4AddrEbENKUlvE1_clEvENKUlvE0_clEv, @function
_ZZZN7Bimorph4AddrEbENKUlvE1_clEvENKUlvE0_clEv:
.LFB2831:
	.cfi_startproc
	addi	sp,sp,-48
	.cfi_def_cfa_offset 48
	sd	ra,40(sp)
	sd	s0,32(sp)
	sd	s1,24(sp)
	.cfi_offset 1, -8
	.cfi_offset 8, -16
	.cfi_offset 9, -24
	addi	s0,sp,48
	.cfi_def_cfa 8, 0
	sd	a0,-40(s0)
	ld	a5,-40(s0)
	ld	s1,0(a5)
	ld	a5,-40(s0)
	ld	a5,0(a5)
	mv	a0,a5
	call	_ZNKSt6bitsetILm8EE4sizeEv
	mv	a5,a0
	addi	a5,a5,-1
	mv	a1,a5
	mv	a0,s1
	call	_ZNSt6bitsetILm8EE5resetEm
	li	a5,0
	mv	a0,a5
	ld	ra,40(sp)
	.cfi_restore 1
	ld	s0,32(sp)
	.cfi_restore 8
	.cfi_def_cfa 2, 48
	ld	s1,24(sp)
	.cfi_restore 9
	addi	sp,sp,48
	.cfi_def_cfa_offset 0
	jr	ra
	.cfi_endproc
.LFE2831:
	.size	_ZZZN7Bimorph4AddrEbENKUlvE1_clEvENKUlvE0_clEv, .-_ZZZN7Bimorph4AddrEbENKUlvE1_clEvENKUlvE0_clEv
	.section	.text._ZZZN7Bimorph4AddrEbENKUlvE1_clEvENKUlvE1_clEv,"axG",@progbits,_ZZZN7Bimorph4AddrEbENKUlvE1_clEvENKUlvE1_clEv,comdat
	.align	1
	.weak	_ZZZN7Bimorph4AddrEbENKUlvE1_clEvENKUlvE1_clEv
	.type	_ZZZN7Bimorph4AddrEbENKUlvE1_clEvENKUlvE1_clEv, @function
_ZZZN7Bimorph4AddrEbENKUlvE1_clEvENKUlvE1_clEv:
.LFB2832:
	.cfi_startproc
	addi	sp,sp,-48
	.cfi_def_cfa_offset 48
	sd	ra,40(sp)
	sd	s0,32(sp)
	sd	s1,24(sp)
	.cfi_offset 1, -8
	.cfi_offset 8, -16
	.cfi_offset 9, -24
	addi	s0,sp,48
	.cfi_def_cfa 8, 0
	sd	a0,-40(s0)
	ld	a5,-40(s0)
	ld	s1,8(a5)
	ld	a5,-40(s0)
	ld	a5,16(a5)
	mv	a0,a5
	call	_ZNKSt6bitsetILm8EE8to_ulongEv
	mv	a3,a0
	ld	a5,-40(s0)
	ld	a4,0(a5)
	mv	a5,a3
	slli	a5,a5,1
	add	a5,a5,a3
	slli	a5,a5,3
	add	a5,s1,a5
	ld	a3,56(a5)
	sd	a3,0(a4)
	ld	a3,64(a5)
	sd	a3,8(a4)
	ld	a5,72(a5)
	sd	a5,16(a4)
	li	a5,0
	mv	a0,a5
	ld	ra,40(sp)
	.cfi_restore 1
	ld	s0,32(sp)
	.cfi_restore 8
	.cfi_def_cfa 2, 48
	ld	s1,24(sp)
	.cfi_restore 9
	addi	sp,sp,48
	.cfi_def_cfa_offset 0
	jr	ra
	.cfi_endproc
.LFE2832:
	.size	_ZZZN7Bimorph4AddrEbENKUlvE1_clEvENKUlvE1_clEv, .-_ZZZN7Bimorph4AddrEbENKUlvE1_clEvENKUlvE1_clEv
	.section	.text._ZZZN7Bimorph4AddrEbENKUlvE1_clEvENKUlvE2_clEv,"axG",@progbits,_ZZZN7Bimorph4AddrEbENKUlvE1_clEvENKUlvE2_clEv,comdat
	.align	1
	.weak	_ZZZN7Bimorph4AddrEbENKUlvE1_clEvENKUlvE2_clEv
	.type	_ZZZN7Bimorph4AddrEbENKUlvE1_clEvENKUlvE2_clEv, @function
_ZZZN7Bimorph4AddrEbENKUlvE1_clEvENKUlvE2_clEv:
.LFB2833:
	.cfi_startproc
	addi	sp,sp,-32
	.cfi_def_cfa_offset 32
	sd	s0,24(sp)
	.cfi_offset 8, -8
	addi	s0,sp,32
	.cfi_def_cfa 8, 0
	sd	a0,-24(s0)
	ld	a5,-24(s0)
	ld	a4,8(a5)
	ld	a5,-24(s0)
	ld	a5,0(a5)
	ld	a4,16(a4)
	sd	a4,0(a5)
	li	a5,0
	mv	a0,a5
	ld	s0,24(sp)
	.cfi_restore 8
	.cfi_def_cfa 2, 32
	addi	sp,sp,32
	.cfi_def_cfa_offset 0
	jr	ra
	.cfi_endproc
.LFE2833:
	.size	_ZZZN7Bimorph4AddrEbENKUlvE1_clEvENKUlvE2_clEv, .-_ZZZN7Bimorph4AddrEbENKUlvE1_clEvENKUlvE2_clEv
	.section	.rodata
	.align	3
.LC65:
	.string	"\320\236\320\250\320\230\320\221\320\232\320\220 \320\236\320\261\320\275\321\203\320\273\320\265\320\275\320\270\320\265 \320\260\320\264\321\200\320\265\321\201\320\260"
	.align	3
.LC66:
	.string	"\320\236\320\250\320\230\320\221\320\232\320\220 \320\241\321\200\320\265\320\264\320\275\321\217\321\217 \321\207\320\260\321\201\321\202\321\214 \320\260\320\264\321\200\320\265\321\201\320\260 "
	.align	3
.LC67:
	.string	"\320\236\320\250\320\230\320\221\320\232\320\220 \320\275\320\265\320\264\320\276\320\277\321\203\321\201\321\202\320\270\320\274\321\213\320\271 \320\260\320\264\321\200\320\265\321\201 "
	.section	.text._ZN7Bimorph4AddrEb,"axG",@progbits,_ZN7Bimorph4AddrEb,comdat
	.align	1
	.weak	_ZN7Bimorph4AddrEb
	.type	_ZN7Bimorph4AddrEb, @function
_ZN7Bimorph4AddrEb:
.LFB2816:
	.cfi_startproc
	.cfi_personality 0x9b,DW.ref.__gxx_personality_v0
	.cfi_lsda 0x1b,.LLSDA2816
	addi	sp,sp,-320
	.cfi_def_cfa_offset 320
	sd	ra,312(sp)
	sd	s0,304(sp)
	sd	s1,296(sp)
	.cfi_offset 1, -8
	.cfi_offset 8, -16
	.cfi_offset 9, -24
	addi	s0,sp,320
	.cfi_def_cfa 8, 0
	sd	a0,-312(s0)
	mv	a5,a1
	sb	a5,-313(s0)
	ld	a4,-312(s0)
	li	a5,8192
	add	a5,a4,a5
	ld	a5,-1992(a5)
	sd	a5,-264(s0)
	sd	zero,-288(s0)
	sd	zero,-280(s0)
	sd	zero,-272(s0)
	sd	zero,-296(s0)
	ld	a5,-312(s0)
	sd	a5,-256(s0)
	addi	a5,s0,-256
	mv	a0,a5
.LEHB202:
	call	_ZZN7Bimorph4AddrEbENKUlvE_clEv
.LEHE202:
	mv	a5,a0
	beq	a5,zero,.L498
	addi	a5,s0,-216
	mv	a0,a5
	call	_ZNSaIcEC1Ev
	addi	a5,s0,-216
	addi	a4,s0,-248
	mv	a2,a5
	lui	a5,%hi(.LC65)
	addi	a1,a5,%lo(.LC65)
	mv	a0,a4
.LEHB203:
	call	_ZNSt7__cxx1112basic_stringIcSt11char_traitsIcESaIcEEC1EPKcRKS3_
.LEHE203:
	addi	a5,s0,-248
	li	a1,93
	mv	a0,a5
.LEHB204:
	call	_Z4mpreNSt7__cxx1112basic_stringIcSt11char_traitsIcESaIcEEEi
.LEHE204:
	addi	a5,s0,-248
	mv	a0,a5
	call	_ZNSt7__cxx1112basic_stringIcSt11char_traitsIcESaIcEED1Ev
	addi	a5,s0,-216
	mv	a0,a5
	call	_ZNSaIcED1Ev
	j	.L499
.L498:
	ld	a5,-312(s0)
	sd	a5,-208(s0)
	addi	a5,s0,-313
	sd	a5,-200(s0)
	addi	a5,s0,-208
	mv	a0,a5
.LEHB205:
	call	_ZZN7Bimorph4AddrEbENKUlvE0_clEv
	mv	a5,a0
	beq	a5,zero,.L500
	ld	a4,-312(s0)
	li	a5,8192
	addi	a5,a5,-1992
	add	a4,a4,a5
	addi	a5,s0,-160
	mv	a1,a4
	mv	a0,a5
	call	_ZNKSt6bitsetILm8EE9to_stringB5cxx11Ev
.LEHE205:
	addi	a4,s0,-192
	addi	a5,s0,-160
	mv	a2,a5
	lui	a5,%hi(.LC66)
	addi	a1,a5,%lo(.LC66)
	mv	a0,a4
.LEHB206:
	call	_ZStplIcSt11char_traitsIcESaIcEENSt7__cxx1112basic_stringIT_T0_T1_EEPKS5_OS8_
.LEHE206:
	addi	a5,s0,-192
	li	a1,99
	mv	a0,a5
.LEHB207:
	call	_Z4mpreNSt7__cxx1112basic_stringIcSt11char_traitsIcESaIcEEEi
.LEHE207:
	addi	a5,s0,-192
	mv	a0,a5
	call	_ZNSt7__cxx1112basic_stringIcSt11char_traitsIcESaIcEED1Ev
	addi	a5,s0,-160
	mv	a0,a5
	call	_ZNSt7__cxx1112basic_stringIcSt11char_traitsIcESaIcEED1Ev
	j	.L499
.L500:
	ld	a5,-312(s0)
	sd	a5,-128(s0)
	addi	a5,s0,-264
	sd	a5,-120(s0)
	addi	a5,s0,-288
	sd	a5,-112(s0)
	addi	a5,s0,-296
	sd	a5,-104(s0)
	addi	a5,s0,-128
	mv	a0,a5
.LEHB208:
	call	_ZZN7Bimorph4AddrEbENKUlvE1_clEv
	mv	a5,a0
	beq	a5,zero,.L499
	ld	a4,-312(s0)
	li	a5,8192
	addi	a5,a5,-1992
	add	a4,a4,a5
	addi	a5,s0,-64
	mv	a1,a4
	mv	a0,a5
	call	_ZNKSt6bitsetILm8EE9to_stringB5cxx11Ev
.LEHE208:
	addi	a4,s0,-96
	addi	a5,s0,-64
	mv	a2,a5
	lui	a5,%hi(.LC67)
	addi	a1,a5,%lo(.LC67)
	mv	a0,a4
.LEHB209:
	call	_ZStplIcSt11char_traitsIcESaIcEENSt7__cxx1112basic_stringIT_T0_T1_EEPKS5_OS8_
.LEHE209:
	addi	a5,s0,-96
	li	a1,108
	mv	a0,a5
.LEHB210:
	call	_Z4mpreNSt7__cxx1112basic_stringIcSt11char_traitsIcESaIcEEEi
.LEHE210:
	addi	a5,s0,-96
	mv	a0,a5
	call	_ZNSt7__cxx1112basic_stringIcSt11char_traitsIcESaIcEED1Ev
	addi	a5,s0,-64
	mv	a0,a5
	call	_ZNSt7__cxx1112basic_stringIcSt11char_traitsIcESaIcEED1Ev
.L499:
	li	a5,1
	j	.L514
.L509:
	mv	s1,a0
	addi	a5,s0,-248
	mv	a0,a5
	call	_ZNSt7__cxx1112basic_stringIcSt11char_traitsIcESaIcEED1Ev
	j	.L503
.L508:
	mv	s1,a0
.L503:
	addi	a5,s0,-216
	mv	a0,a5
	call	_ZNSaIcED1Ev
	mv	a5,s1
	mv	a0,a5
.LEHB211:
	call	_Unwind_Resume
.L511:
	mv	s1,a0
	addi	a5,s0,-192
	mv	a0,a5
	call	_ZNSt7__cxx1112basic_stringIcSt11char_traitsIcESaIcEED1Ev
	j	.L505
.L510:
	mv	s1,a0
.L505:
	addi	a5,s0,-160
	mv	a0,a5
	call	_ZNSt7__cxx1112basic_stringIcSt11char_traitsIcESaIcEED1Ev
	mv	a5,s1
	mv	a0,a5
	call	_Unwind_Resume
.L513:
	mv	s1,a0
	addi	a5,s0,-96
	mv	a0,a5
	call	_ZNSt7__cxx1112basic_stringIcSt11char_traitsIcESaIcEED1Ev
	j	.L507
.L512:
	mv	s1,a0
.L507:
	addi	a5,s0,-64
	mv	a0,a5
	call	_ZNSt7__cxx1112basic_stringIcSt11char_traitsIcESaIcEED1Ev
	mv	a5,s1
	mv	a0,a5
	call	_Unwind_Resume
.LEHE211:
.L514:
	mv	a0,a5
	ld	ra,312(sp)
	.cfi_restore 1
	ld	s0,304(sp)
	.cfi_restore 8
	.cfi_def_cfa 2, 320
	ld	s1,296(sp)
	.cfi_restore 9
	addi	sp,sp,320
	.cfi_def_cfa_offset 0
	jr	ra
	.cfi_endproc
.LFE2816:
	.section	.gcc_except_table
.LLSDA2816:
	.byte	0xff
	.byte	0xff
	.byte	0x3
	.byte	0x82,0x1
	.4byte	.LEHB202-.LFB2816
	.4byte	.LEHE202-.LEHB202
	.4byte	0
	.byte	0
	.4byte	.LEHB203-.LFB2816
	.4byte	.LEHE203-.LEHB203
	.4byte	.L508-.LFB2816
	.byte	0
	.4byte	.LEHB204-.LFB2816
	.4byte	.LEHE204-.LEHB204
	.4byte	.L509-.LFB2816
	.byte	0
	.4byte	.LEHB205-.LFB2816
	.4byte	.LEHE205-.LEHB205
	.4byte	0
	.byte	0
	.4byte	.LEHB206-.LFB2816
	.4byte	.LEHE206-.LEHB206
	.4byte	.L510-.LFB2816
	.byte	0
	.4byte	.LEHB207-.LFB2816
	.4byte	.LEHE207-.LEHB207
	.4byte	.L511-.LFB2816
	.byte	0
	.4byte	.LEHB208-.LFB2816
	.4byte	.LEHE208-.LEHB208
	.4byte	0
	.byte	0
	.4byte	.LEHB209-.LFB2816
	.4byte	.LEHE209-.LEHB209
	.4byte	.L512-.LFB2816
	.byte	0
	.4byte	.LEHB210-.LFB2816
	.4byte	.LEHE210-.LEHB210
	.4byte	.L513-.LFB2816
	.byte	0
	.4byte	.LEHB211-.LFB2816
	.4byte	.LEHE211-.LEHB211
	.4byte	0
	.byte	0
	.section	.text._ZN7Bimorph4AddrEb,"axG",@progbits,_ZN7Bimorph4AddrEb,comdat
	.size	_ZN7Bimorph4AddrEb, .-_ZN7Bimorph4AddrEb
	.section	.rodata
	.align	3
.LC68:
	.string	"r+"
	.section	.text._ZZN7Bimorph4FileEvENKUlvE_clEv,"axG",@progbits,_ZZN7Bimorph4FileEvENKUlvE_clEv,comdat
	.align	1
	.weak	_ZZN7Bimorph4FileEvENKUlvE_clEv
	.type	_ZZN7Bimorph4FileEvENKUlvE_clEv, @function
_ZZN7Bimorph4FileEvENKUlvE_clEv:
.LFB2835:
	.cfi_startproc
	addi	sp,sp,-48
	.cfi_def_cfa_offset 48
	sd	ra,40(sp)
	sd	s0,32(sp)
	sd	s1,24(sp)
	.cfi_offset 1, -8
	.cfi_offset 8, -16
	.cfi_offset 9, -24
	addi	s0,sp,48
	.cfi_def_cfa 8, 0
	sd	a0,-40(s0)
	ld	a5,-40(s0)
	ld	a5,0(a5)
	mv	a0,a5
	call	_ZNKSt7__cxx1112basic_stringIcSt11char_traitsIcESaIcEE5c_strEv
	mv	a4,a0
	ld	a5,-40(s0)
	ld	s1,0(a5)
	lui	a5,%hi(.LC68)
	addi	a1,a5,%lo(.LC68)
	mv	a0,a4
	call	fopen
	mv	a5,a0
	sd	a5,40(s1)
	ld	a5,-40(s0)
	ld	a5,0(a5)
	ld	a5,40(a5)
	seqz	a5,a5
	andi	a5,a5,0xff
	mv	a0,a5
	ld	ra,40(sp)
	.cfi_restore 1
	ld	s0,32(sp)
	.cfi_restore 8
	.cfi_def_cfa 2, 48
	ld	s1,24(sp)
	.cfi_restore 9
	addi	sp,sp,48
	.cfi_def_cfa_offset 0
	jr	ra
	.cfi_endproc
.LFE2835:
	.size	_ZZN7Bimorph4FileEvENKUlvE_clEv, .-_ZZN7Bimorph4FileEvENKUlvE_clEv
	.section	.rodata
	.align	3
.LC69:
	.string	"\320\236\320\250\320\230\320\221\320\232\320\220 \320\276\321\202\320\272\321\200\321\213\321\202\320\270\321\217 \321\204\320\260\320\273\320\260 \320\275\320\260 \320\267\320\260\320\277\320\270\321\201\321\214"
	.section	.text._ZN7Bimorph4FileEv,"axG",@progbits,_ZN7Bimorph4FileEv,comdat
	.align	1
	.weak	_ZN7Bimorph4FileEv
	.type	_ZN7Bimorph4FileEv, @function
_ZN7Bimorph4FileEv:
.LFB2834:
	.cfi_startproc
	.cfi_personality 0x9b,DW.ref.__gxx_personality_v0
	.cfi_lsda 0x1b,.LLSDA2834
	addi	sp,sp,-96
	.cfi_def_cfa_offset 96
	sd	ra,88(sp)
	sd	s0,80(sp)
	sd	s1,72(sp)
	.cfi_offset 1, -8
	.cfi_offset 8, -16
	.cfi_offset 9, -24
	addi	s0,sp,96
	.cfi_def_cfa 8, 0
	sd	a0,-88(s0)
	ld	a5,-88(s0)
	sd	a5,-80(s0)
	addi	a5,s0,-80
	mv	a0,a5
.LEHB212:
	call	_ZZN7Bimorph4FileEvENKUlvE_clEv
.LEHE212:
	mv	a5,a0
	beq	a5,zero,.L518
	addi	a5,s0,-40
	mv	a0,a5
	call	_ZNSaIcEC1Ev
	addi	a5,s0,-40
	addi	a4,s0,-72
	mv	a2,a5
	lui	a5,%hi(.LC69)
	addi	a1,a5,%lo(.LC69)
	mv	a0,a4
.LEHB213:
	call	_ZNSt7__cxx1112basic_stringIcSt11char_traitsIcESaIcEEC1EPKcRKS3_
.LEHE213:
	addi	a5,s0,-72
	li	a1,112
	mv	a0,a5
.LEHB214:
	call	_Z4mpreNSt7__cxx1112basic_stringIcSt11char_traitsIcESaIcEEEi
.LEHE214:
	addi	a5,s0,-72
	mv	a0,a5
	call	_ZNSt7__cxx1112basic_stringIcSt11char_traitsIcESaIcEED1Ev
	addi	a5,s0,-40
	mv	a0,a5
	call	_ZNSaIcED1Ev
	li	a5,0
	j	.L525
.L518:
	li	a5,1
	j	.L525
.L524:
	mv	s1,a0
	addi	a5,s0,-72
	mv	a0,a5
	call	_ZNSt7__cxx1112basic_stringIcSt11char_traitsIcESaIcEED1Ev
	j	.L522
.L523:
	mv	s1,a0
.L522:
	addi	a5,s0,-40
	mv	a0,a5
	call	_ZNSaIcED1Ev
	mv	a5,s1
	mv	a0,a5
.LEHB215:
	call	_Unwind_Resume
.LEHE215:
.L525:
	mv	a0,a5
	ld	ra,88(sp)
	.cfi_restore 1
	ld	s0,80(sp)
	.cfi_restore 8
	.cfi_def_cfa 2, 96
	ld	s1,72(sp)
	.cfi_restore 9
	addi	sp,sp,96
	.cfi_def_cfa_offset 0
	jr	ra
	.cfi_endproc
.LFE2834:
	.section	.gcc_except_table
.LLSDA2834:
	.byte	0xff
	.byte	0xff
	.byte	0x3
	.byte	0x34
	.4byte	.LEHB212-.LFB2834
	.4byte	.LEHE212-.LEHB212
	.4byte	0
	.byte	0
	.4byte	.LEHB213-.LFB2834
	.4byte	.LEHE213-.LEHB213
	.4byte	.L523-.LFB2834
	.byte	0
	.4byte	.LEHB214-.LFB2834
	.4byte	.LEHE214-.LEHB214
	.4byte	.L524-.LFB2834
	.byte	0
	.4byte	.LEHB215-.LFB2834
	.4byte	.LEHE215-.LEHB215
	.4byte	0
	.byte	0
	.section	.text._ZN7Bimorph4FileEv,"axG",@progbits,_ZN7Bimorph4FileEv,comdat
	.size	_ZN7Bimorph4FileEv, .-_ZN7Bimorph4FileEv
	.section	.rodata
	.align	3
.LC70:
	.string	"\320\236\320\250\320\230\320\221\320\232\320\220 \321\203\321\201\321\202\320\260\320\275\320\276\320\262\320\272\320\260 \321\203\320\272\320\260\320\267\320\260\321\202\320\265\320\273\321\217 \320\262 \320\272\320\276\320\275\320\265\321\206 \321\204\320\260\320\271\320\273\320\260"
	.align	3
.LC71:
	.string	"\320\236\320\250\320\230\320\221\320\232\320\220 \320\276\320\277\321\200\320\265\320\264\320\265\320\273\320\265\320\275\320\270\321\217 \321\200\320\260\320\267\320\274\320\265\321\200\320\260 \321\204\320\260\320\271\320\273\320\260"
	.align	3
.LC72:
	.string	"\320\236\320\250\320\230\320\221\320\232\320\220 \321\200\320\260\320\267\320\274\320\265\321\200 \321\204\320\260\320\271\320\273\320\260 \320\275\320\265 \321\200\320\260\320\262\320\265\320\275 \320\277\321\200\320\265\320\264\321\213\320\264\321\203\321\211\320\265\320\274\321\203 \320\261\320\273\320\276\320\272\321\203"
	.align	3
.LC73:
	.string	"\320\236\320\250\320\230\320\221\320\232\320\220 \321\203\321\201\321\202\320\260\320\275\320\276\320\262\320\272\320\270 \320\275\320\276\320\262\320\276\320\263\320\276 \320\261\321\203\321\204\320\265\321\200\320\260"
	.align	3
.LC74:
	.string	"\320\224\320\276\320\261\320\260\320\262\320\273\321\217\320\265\320\274 \320\275\320\276\320\262\321\213\320\271 \320\261\320\273\320\276\320\272 "
	.section	.text._ZZN7Bimorph3BufESt6bitsetILm32EEbENKUlvE_clEv,"axG",@progbits,_ZZN7Bimorph3BufESt6bitsetILm32EEbENKUlvE_clEv,comdat
	.align	1
	.weak	_ZZN7Bimorph3BufESt6bitsetILm32EEbENKUlvE_clEv
	.type	_ZZN7Bimorph3BufESt6bitsetILm32EEbENKUlvE_clEv, @function
_ZZN7Bimorph3BufESt6bitsetILm32EEbENKUlvE_clEv:
.LFB2837:
	.cfi_startproc
	.cfi_personality 0x9b,DW.ref.__gxx_personality_v0
	.cfi_lsda 0x1b,.LLSDA2837
	addi	sp,sp,-304
	.cfi_def_cfa_offset 304
	sd	ra,296(sp)
	sd	s0,288(sp)
	sd	s1,280(sp)
	.cfi_offset 1, -8
	.cfi_offset 8, -16
	.cfi_offset 9, -24
	addi	s0,sp,304
	.cfi_def_cfa 8, 0
	sd	a0,-296(s0)
	ld	a5,-296(s0)
	ld	a5,0(a5)
	lbu	a5,0(a5)
	bne	a5,zero,.L527
	ld	a5,-296(s0)
	ld	a5,8(a5)
	ld	a5,40(a5)
	li	a2,2
	li	a1,0
	mv	a0,a5
	call	fseek
	mv	a5,a0
	snez	a5,a5
	andi	a5,a5,0xff
	beq	a5,zero,.L528
	addi	a5,s0,-248
	mv	a0,a5
	call	_ZNSaIcEC1Ev
	addi	a5,s0,-248
	addi	a4,s0,-280
	mv	a2,a5
	lui	a5,%hi(.LC70)
	addi	a1,a5,%lo(.LC70)
	mv	a0,a4
.LEHB216:
	call	_ZNSt7__cxx1112basic_stringIcSt11char_traitsIcESaIcEEC1EPKcRKS3_
.LEHE216:
	addi	a5,s0,-280
	li	a1,119
	mv	a0,a5
.LEHB217:
	call	_Z4mpreNSt7__cxx1112basic_stringIcSt11char_traitsIcESaIcEEEi
.LEHE217:
	addi	a5,s0,-280
	mv	a0,a5
	call	_ZNSt7__cxx1112basic_stringIcSt11char_traitsIcESaIcEED1Ev
	addi	a5,s0,-248
	mv	a0,a5
	call	_ZNSaIcED1Ev
	j	.L527
.L528:
	addi	a5,s0,-284
	sd	a5,-240(s0)
	ld	a5,-296(s0)
	ld	a5,8(a5)
	sd	a5,-232(s0)
	addi	a5,s0,-240
	mv	a0,a5
.LEHB218:
	call	_ZZZN7Bimorph3BufESt6bitsetILm32EEbENKUlvE_clEvENKUlvE_clEv
.LEHE218:
	mv	a5,a0
	beq	a5,zero,.L529
	addi	a5,s0,-192
	mv	a0,a5
	call	_ZNSaIcEC1Ev
	addi	a5,s0,-192
	addi	a4,s0,-224
	mv	a2,a5
	lui	a5,%hi(.LC71)
	addi	a1,a5,%lo(.LC71)
	mv	a0,a4
.LEHB219:
	call	_ZNSt7__cxx1112basic_stringIcSt11char_traitsIcESaIcEEC1EPKcRKS3_
.LEHE219:
	addi	a5,s0,-224
	li	a1,120
	mv	a0,a5
.LEHB220:
	call	_Z4mpreNSt7__cxx1112basic_stringIcSt11char_traitsIcESaIcEEEi
.LEHE220:
	addi	a5,s0,-224
	mv	a0,a5
	call	_ZNSt7__cxx1112basic_stringIcSt11char_traitsIcESaIcEED1Ev
	addi	a5,s0,-192
	mv	a0,a5
	call	_ZNSaIcED1Ev
	j	.L527
.L529:
	lw	a5,-284(s0)
	mv	s1,a5
	ld	a5,-296(s0)
	ld	a5,16(a5)
	mv	a0,a5
	call	_ZNKSt6bitsetILm32EE8to_ulongEv
	mv	a5,a0
	addi	a4,a5,1
	mv	a5,a4
	slli	a5,a5,1
	add	a5,a5,a4
	slli	a5,a5,11
	sltu	a5,s1,a5
	xori	a5,a5,1
	andi	a5,a5,0xff
	bne	a5,zero,.L527
	lw	a5,-284(s0)
	mv	s1,a5
	ld	a5,-296(s0)
	ld	a5,16(a5)
	mv	a0,a5
	call	_ZNKSt6bitsetILm32EE8to_ulongEv
	mv	a4,a0
	mv	a5,a4
	slli	a5,a5,1
	add	a5,a5,a4
	slli	a5,a5,11
	sub	a5,s1,a5
	snez	a5,a5
	andi	a5,a5,0xff
	beq	a5,zero,.L530
	addi	a5,s0,-152
	mv	a0,a5
	call	_ZNSaIcEC1Ev
	addi	a5,s0,-152
	addi	a4,s0,-184
	mv	a2,a5
	lui	a5,%hi(.LC72)
	addi	a1,a5,%lo(.LC72)
	mv	a0,a4
.LEHB221:
	call	_ZNSt7__cxx1112basic_stringIcSt11char_traitsIcESaIcEEC1EPKcRKS3_
.LEHE221:
	addi	a5,s0,-184
	li	a1,122
	mv	a0,a5
.LEHB222:
	call	_Z4mpreNSt7__cxx1112basic_stringIcSt11char_traitsIcESaIcEEEi
.LEHE222:
	addi	a5,s0,-184
	mv	a0,a5
	call	_ZNSt7__cxx1112basic_stringIcSt11char_traitsIcESaIcEED1Ev
	addi	a5,s0,-152
	mv	a0,a5
	call	_ZNSaIcED1Ev
	j	.L527
.L530:
	ld	a5,-296(s0)
	ld	a5,0(a5)
	sd	a5,-144(s0)
	addi	a5,s0,-144
	mv	a0,a5
	call	_ZZZN7Bimorph3BufESt6bitsetILm32EEbENKUlvE_clEvENKUlvE0_clEv
	mv	a5,a0
	beq	a5,zero,.L531
	addi	a5,s0,-104
	mv	a0,a5
	call	_ZNSaIcEC1Ev
	addi	a5,s0,-104
	addi	a4,s0,-136
	mv	a2,a5
	lui	a5,%hi(.LC73)
	addi	a1,a5,%lo(.LC73)
	mv	a0,a4
.LEHB223:
	call	_ZNSt7__cxx1112basic_stringIcSt11char_traitsIcESaIcEEC1EPKcRKS3_
.LEHE223:
	addi	a5,s0,-136
	li	a1,123
	mv	a0,a5
.LEHB224:
	call	_Z4mpreNSt7__cxx1112basic_stringIcSt11char_traitsIcESaIcEEEi
.LEHE224:
	addi	a5,s0,-136
	mv	a0,a5
	call	_ZNSt7__cxx1112basic_stringIcSt11char_traitsIcESaIcEED1Ev
	addi	a5,s0,-104
	mv	a0,a5
	call	_ZNSaIcED1Ev
	j	.L527
.L531:
	lw	a4,-284(s0)
	addi	a5,s0,-64
	mv	a1,a4
	mv	a0,a5
.LEHB225:
	call	_ZNSt7__cxx119to_stringEi
.LEHE225:
	addi	a4,s0,-96
	addi	a5,s0,-64
	mv	a2,a5
	lui	a5,%hi(.LC74)
	addi	a1,a5,%lo(.LC74)
	mv	a0,a4
.LEHB226:
	call	_ZStplIcSt11char_traitsIcESaIcEENSt7__cxx1112basic_stringIT_T0_T1_EEPKS5_OS8_
.LEHE226:
	addi	a5,s0,-96
	li	a1,124
	mv	a0,a5
.LEHB227:
	call	_Z4mpreNSt7__cxx1112basic_stringIcSt11char_traitsIcESaIcEEEi
.LEHE227:
	addi	a5,s0,-96
	mv	a0,a5
	call	_ZNSt7__cxx1112basic_stringIcSt11char_traitsIcESaIcEED1Ev
	addi	a5,s0,-64
	mv	a0,a5
	call	_ZNSt7__cxx1112basic_stringIcSt11char_traitsIcESaIcEED1Ev
.L527:
	li	a5,0
	j	.L553
.L544:
	mv	s1,a0
	addi	a5,s0,-280
	mv	a0,a5
	call	_ZNSt7__cxx1112basic_stringIcSt11char_traitsIcESaIcEED1Ev
	j	.L534
.L543:
	mv	s1,a0
.L534:
	addi	a5,s0,-248
	mv	a0,a5
	call	_ZNSaIcED1Ev
	mv	a5,s1
	mv	a0,a5
.LEHB228:
	call	_Unwind_Resume
.L546:
	mv	s1,a0
	addi	a5,s0,-224
	mv	a0,a5
	call	_ZNSt7__cxx1112basic_stringIcSt11char_traitsIcESaIcEED1Ev
	j	.L536
.L545:
	mv	s1,a0
.L536:
	addi	a5,s0,-192
	mv	a0,a5
	call	_ZNSaIcED1Ev
	mv	a5,s1
	mv	a0,a5
	call	_Unwind_Resume
.L548:
	mv	s1,a0
	addi	a5,s0,-184
	mv	a0,a5
	call	_ZNSt7__cxx1112basic_stringIcSt11char_traitsIcESaIcEED1Ev
	j	.L538
.L547:
	mv	s1,a0
.L538:
	addi	a5,s0,-152
	mv	a0,a5
	call	_ZNSaIcED1Ev
	mv	a5,s1
	mv	a0,a5
	call	_Unwind_Resume
.L550:
	mv	s1,a0
	addi	a5,s0,-136
	mv	a0,a5
	call	_ZNSt7__cxx1112basic_stringIcSt11char_traitsIcESaIcEED1Ev
	j	.L540
.L549:
	mv	s1,a0
.L540:
	addi	a5,s0,-104
	mv	a0,a5
	call	_ZNSaIcED1Ev
	mv	a5,s1
	mv	a0,a5
	call	_Unwind_Resume
.L552:
	mv	s1,a0
	addi	a5,s0,-96
	mv	a0,a5
	call	_ZNSt7__cxx1112basic_stringIcSt11char_traitsIcESaIcEED1Ev
	j	.L542
.L551:
	mv	s1,a0
.L542:
	addi	a5,s0,-64
	mv	a0,a5
	call	_ZNSt7__cxx1112basic_stringIcSt11char_traitsIcESaIcEED1Ev
	mv	a5,s1
	mv	a0,a5
	call	_Unwind_Resume
.LEHE228:
.L553:
	mv	a0,a5
	ld	ra,296(sp)
	.cfi_restore 1
	ld	s0,288(sp)
	.cfi_restore 8
	.cfi_def_cfa 2, 304
	ld	s1,280(sp)
	.cfi_restore 9
	addi	sp,sp,304
	.cfi_def_cfa_offset 0
	jr	ra
	.cfi_endproc
.LFE2837:
	.section	.gcc_except_table
.LLSDA2837:
	.byte	0xff
	.byte	0xff
	.byte	0x3
	.byte	0xa9,0x1
	.4byte	.LEHB216-.LFB2837
	.4byte	.LEHE216-.LEHB216
	.4byte	.L543-.LFB2837
	.byte	0
	.4byte	.LEHB217-.LFB2837
	.4byte	.LEHE217-.LEHB217
	.4byte	.L544-.LFB2837
	.byte	0
	.4byte	.LEHB218-.LFB2837
	.4byte	.LEHE218-.LEHB218
	.4byte	0
	.byte	0
	.4byte	.LEHB219-.LFB2837
	.4byte	.LEHE219-.LEHB219
	.4byte	.L545-.LFB2837
	.byte	0
	.4byte	.LEHB220-.LFB2837
	.4byte	.LEHE220-.LEHB220
	.4byte	.L546-.LFB2837
	.byte	0
	.4byte	.LEHB221-.LFB2837
	.4byte	.LEHE221-.LEHB221
	.4byte	.L547-.LFB2837
	.byte	0
	.4byte	.LEHB222-.LFB2837
	.4byte	.LEHE222-.LEHB222
	.4byte	.L548-.LFB2837
	.byte	0
	.4byte	.LEHB223-.LFB2837
	.4byte	.LEHE223-.LEHB223
	.4byte	.L549-.LFB2837
	.byte	0
	.4byte	.LEHB224-.LFB2837
	.4byte	.LEHE224-.LEHB224
	.4byte	.L550-.LFB2837
	.byte	0
	.4byte	.LEHB225-.LFB2837
	.4byte	.LEHE225-.LEHB225
	.4byte	0
	.byte	0
	.4byte	.LEHB226-.LFB2837
	.4byte	.LEHE226-.LEHB226
	.4byte	.L551-.LFB2837
	.byte	0
	.4byte	.LEHB227-.LFB2837
	.4byte	.LEHE227-.LEHB227
	.4byte	.L552-.LFB2837
	.byte	0
	.4byte	.LEHB228-.LFB2837
	.4byte	.LEHE228-.LEHB228
	.4byte	0
	.byte	0
	.section	.text._ZZN7Bimorph3BufESt6bitsetILm32EEbENKUlvE_clEv,"axG",@progbits,_ZZN7Bimorph3BufESt6bitsetILm32EEbENKUlvE_clEv,comdat
	.size	_ZZN7Bimorph3BufESt6bitsetILm32EEbENKUlvE_clEv, .-_ZZN7Bimorph3BufESt6bitsetILm32EEbENKUlvE_clEv
	.section	.text._ZZZN7Bimorph3BufESt6bitsetILm32EEbENKUlvE_clEvENKUlvE_clEv,"axG",@progbits,_ZZZN7Bimorph3BufESt6bitsetILm32EEbENKUlvE_clEvENKUlvE_clEv,comdat
	.align	1
	.weak	_ZZZN7Bimorph3BufESt6bitsetILm32EEbENKUlvE_clEvENKUlvE_clEv
	.type	_ZZZN7Bimorph3BufESt6bitsetILm32EEbENKUlvE_clEvENKUlvE_clEv, @function
_ZZZN7Bimorph3BufESt6bitsetILm32EEbENKUlvE_clEvENKUlvE_clEv:
.LFB2838:
	.cfi_startproc
	addi	sp,sp,-32
	.cfi_def_cfa_offset 32
	sd	ra,24(sp)
	sd	s0,16(sp)
	.cfi_offset 1, -8
	.cfi_offset 8, -16
	addi	s0,sp,32
	.cfi_def_cfa 8, 0
	sd	a0,-24(s0)
	ld	a5,-24(s0)
	ld	a5,8(a5)
	ld	a5,40(a5)
	mv	a0,a5
	call	ftell
	mv	a4,a0
	ld	a5,-24(s0)
	ld	a5,0(a5)
	sext.w	a4,a4
	sw	a4,0(a5)
	li	a5,0
	mv	a0,a5
	ld	ra,24(sp)
	.cfi_restore 1
	ld	s0,16(sp)
	.cfi_restore 8
	.cfi_def_cfa 2, 32
	addi	sp,sp,32
	.cfi_def_cfa_offset 0
	jr	ra
	.cfi_endproc
.LFE2838:
	.size	_ZZZN7Bimorph3BufESt6bitsetILm32EEbENKUlvE_clEvENKUlvE_clEv, .-_ZZZN7Bimorph3BufESt6bitsetILm32EEbENKUlvE_clEvENKUlvE_clEv
	.section	.text._ZZZN7Bimorph3BufESt6bitsetILm32EEbENKUlvE_clEvENKUlvE0_clEv,"axG",@progbits,_ZZZN7Bimorph3BufESt6bitsetILm32EEbENKUlvE_clEvENKUlvE0_clEv,comdat
	.align	1
	.weak	_ZZZN7Bimorph3BufESt6bitsetILm32EEbENKUlvE_clEvENKUlvE0_clEv
	.type	_ZZZN7Bimorph3BufESt6bitsetILm32EEbENKUlvE_clEvENKUlvE0_clEv, @function
_ZZZN7Bimorph3BufESt6bitsetILm32EEbENKUlvE_clEvENKUlvE0_clEv:
.LFB2839:
	.cfi_startproc
	addi	sp,sp,-32
	.cfi_def_cfa_offset 32
	sd	s0,24(sp)
	.cfi_offset 8, -8
	addi	s0,sp,32
	.cfi_def_cfa 8, 0
	sd	a0,-24(s0)
	ld	a5,-24(s0)
	ld	a5,0(a5)
	li	a4,1
	sb	a4,0(a5)
	lbu	a5,0(a5)
	xori	a5,a5,1
	andi	a5,a5,0xff
	mv	a0,a5
	ld	s0,24(sp)
	.cfi_restore 8
	.cfi_def_cfa 2, 32
	addi	sp,sp,32
	.cfi_def_cfa_offset 0
	jr	ra
	.cfi_endproc
.LFE2839:
	.size	_ZZZN7Bimorph3BufESt6bitsetILm32EEbENKUlvE_clEvENKUlvE0_clEv, .-_ZZZN7Bimorph3BufESt6bitsetILm32EEbENKUlvE_clEvENKUlvE0_clEv
	.section	.rodata
	.align	3
.LC75:
	.string	"\320\236\320\250\320\230\320\221\320\232\320\220 \321\203\321\201\321\202\320\260\320\275\320\276\320\262\320\272\320\270 \321\201\320\274\320\265\321\211\320\265\320\275\320\270\321\217 \320\262 \321\204\320\260\320\271\320\273\320\265"
	.align	3
.LC76:
	.string	"\320\236\320\250\320\230\320\221\320\232\320\220 \320\262\321\213\320\261\320\276\321\200\320\272\320\270 \320\261\321\203\321\204\320\265\321\200\320\260 \320\270\320\267 \321\204\320\260\320\271\320\273\320\260"
	.align	3
.LC77:
	.string	"\320\227\320\260\320\277\320\270\321\201\321\214 \320\264\320\260\320\275\320\275\321\213\321\205 \320\262 \321\204\320\260\320\271\320\273 "
	.section	.text._ZZN7Bimorph3BufESt6bitsetILm32EEbENKUlvE0_clEv,"axG",@progbits,_ZZN7Bimorph3BufESt6bitsetILm32EEbENKUlvE0_clEv,comdat
	.align	1
	.weak	_ZZN7Bimorph3BufESt6bitsetILm32EEbENKUlvE0_clEv
	.type	_ZZN7Bimorph3BufESt6bitsetILm32EEbENKUlvE0_clEv, @function
_ZZN7Bimorph3BufESt6bitsetILm32EEbENKUlvE0_clEv:
.LFB2840:
	.cfi_startproc
	.cfi_personality 0x9b,DW.ref.__gxx_personality_v0
	.cfi_lsda 0x1b,.LLSDA2840
	addi	sp,sp,-208
	.cfi_def_cfa_offset 208
	sd	ra,200(sp)
	sd	s0,192(sp)
	sd	s1,184(sp)
	.cfi_offset 1, -8
	.cfi_offset 8, -16
	.cfi_offset 9, -24
	addi	s0,sp,208
	.cfi_def_cfa 8, 0
	sd	a0,-200(s0)
	ld	a5,-200(s0)
	ld	a5,0(a5)
	lbu	a5,0(a5)
	xori	a5,a5,1
	andi	a5,a5,0xff
	bne	a5,zero,.L559
	ld	a5,-200(s0)
	ld	a5,8(a5)
	sd	a5,-192(s0)
	addi	a5,s0,-192
	mv	a0,a5
.LEHB229:
	call	_ZZZN7Bimorph3BufESt6bitsetILm32EEbENKUlvE0_clEvENKUlvE_clEv
.LEHE229:
	mv	a5,a0
	beq	a5,zero,.L560
	addi	a5,s0,-152
	mv	a0,a5
	call	_ZNSaIcEC1Ev
	addi	a5,s0,-152
	addi	a4,s0,-184
	mv	a2,a5
	lui	a5,%hi(.LC75)
	addi	a1,a5,%lo(.LC75)
	mv	a0,a4
.LEHB230:
	call	_ZNSt7__cxx1112basic_stringIcSt11char_traitsIcESaIcEEC1EPKcRKS3_
.LEHE230:
	addi	a5,s0,-184
	li	a1,128
	mv	a0,a5
.LEHB231:
	call	_Z4mpreNSt7__cxx1112basic_stringIcSt11char_traitsIcESaIcEEEi
.LEHE231:
	addi	a5,s0,-184
	mv	a0,a5
	call	_ZNSt7__cxx1112basic_stringIcSt11char_traitsIcESaIcEED1Ev
	addi	a5,s0,-152
	mv	a0,a5
	call	_ZNSaIcED1Ev
	j	.L559
.L560:
	ld	a5,-200(s0)
	ld	a5,8(a5)
	sd	a5,-144(s0)
	addi	a5,s0,-144
	mv	a0,a5
.LEHB232:
	call	_ZZZN7Bimorph3BufESt6bitsetILm32EEbENKUlvE0_clEvENKUlvE0_clEv
.LEHE232:
	mv	a5,a0
	beq	a5,zero,.L561
	addi	a5,s0,-104
	mv	a0,a5
	call	_ZNSaIcEC1Ev
	addi	a5,s0,-104
	addi	a4,s0,-136
	mv	a2,a5
	lui	a5,%hi(.LC76)
	addi	a1,a5,%lo(.LC76)
	mv	a0,a4
.LEHB233:
	call	_ZNSt7__cxx1112basic_stringIcSt11char_traitsIcESaIcEEC1EPKcRKS3_
.LEHE233:
	addi	a5,s0,-136
	li	a1,129
	mv	a0,a5
.LEHB234:
	call	_Z4mpreNSt7__cxx1112basic_stringIcSt11char_traitsIcESaIcEEEi
.LEHE234:
	addi	a5,s0,-136
	mv	a0,a5
	call	_ZNSt7__cxx1112basic_stringIcSt11char_traitsIcESaIcEED1Ev
	addi	a5,s0,-104
	mv	a0,a5
	call	_ZNSaIcED1Ev
	j	.L559
.L561:
	ld	a5,-200(s0)
	ld	a5,8(a5)
	addi	a5,a5,48
	mv	a0,a5
	call	_ZNKSt6bitsetILm32EE8to_ulongEv
	mv	a4,a0
	addi	a5,s0,-64
	mv	a1,a4
	mv	a0,a5
.LEHB235:
	call	_ZNSt7__cxx119to_stringEm
.LEHE235:
	addi	a4,s0,-96
	addi	a5,s0,-64
	mv	a2,a5
	lui	a5,%hi(.LC77)
	addi	a1,a5,%lo(.LC77)
	mv	a0,a4
.LEHB236:
	call	_ZStplIcSt11char_traitsIcESaIcEENSt7__cxx1112basic_stringIT_T0_T1_EEPKS5_OS8_
.LEHE236:
	addi	a5,s0,-96
	li	a1,130
	mv	a0,a5
.LEHB237:
	call	_Z4mpreNSt7__cxx1112basic_stringIcSt11char_traitsIcESaIcEEEi
.LEHE237:
	addi	a5,s0,-96
	mv	a0,a5
	call	_ZNSt7__cxx1112basic_stringIcSt11char_traitsIcESaIcEED1Ev
	addi	a5,s0,-64
	mv	a0,a5
	call	_ZNSt7__cxx1112basic_stringIcSt11char_traitsIcESaIcEED1Ev
.L559:
	li	a5,0
	j	.L575
.L570:
	mv	s1,a0
	addi	a5,s0,-184
	mv	a0,a5
	call	_ZNSt7__cxx1112basic_stringIcSt11char_traitsIcESaIcEED1Ev
	j	.L564
.L569:
	mv	s1,a0
.L564:
	addi	a5,s0,-152
	mv	a0,a5
	call	_ZNSaIcED1Ev
	mv	a5,s1
	mv	a0,a5
.LEHB238:
	call	_Unwind_Resume
.L572:
	mv	s1,a0
	addi	a5,s0,-136
	mv	a0,a5
	call	_ZNSt7__cxx1112basic_stringIcSt11char_traitsIcESaIcEED1Ev
	j	.L566
.L571:
	mv	s1,a0
.L566:
	addi	a5,s0,-104
	mv	a0,a5
	call	_ZNSaIcED1Ev
	mv	a5,s1
	mv	a0,a5
	call	_Unwind_Resume
.L574:
	mv	s1,a0
	addi	a5,s0,-96
	mv	a0,a5
	call	_ZNSt7__cxx1112basic_stringIcSt11char_traitsIcESaIcEED1Ev
	j	.L568
.L573:
	mv	s1,a0
.L568:
	addi	a5,s0,-64
	mv	a0,a5
	call	_ZNSt7__cxx1112basic_stringIcSt11char_traitsIcESaIcEED1Ev
	mv	a5,s1
	mv	a0,a5
	call	_Unwind_Resume
.LEHE238:
.L575:
	mv	a0,a5
	ld	ra,200(sp)
	.cfi_restore 1
	ld	s0,192(sp)
	.cfi_restore 8
	.cfi_def_cfa 2, 208
	ld	s1,184(sp)
	.cfi_restore 9
	addi	sp,sp,208
	.cfi_def_cfa_offset 0
	jr	ra
	.cfi_endproc
.LFE2840:
	.section	.gcc_except_table
.LLSDA2840:
	.byte	0xff
	.byte	0xff
	.byte	0x3
	.byte	0x82,0x1
	.4byte	.LEHB229-.LFB2840
	.4byte	.LEHE229-.LEHB229
	.4byte	0
	.byte	0
	.4byte	.LEHB230-.LFB2840
	.4byte	.LEHE230-.LEHB230
	.4byte	.L569-.LFB2840
	.byte	0
	.4byte	.LEHB231-.LFB2840
	.4byte	.LEHE231-.LEHB231
	.4byte	.L570-.LFB2840
	.byte	0
	.4byte	.LEHB232-.LFB2840
	.4byte	.LEHE232-.LEHB232
	.4byte	0
	.byte	0
	.4byte	.LEHB233-.LFB2840
	.4byte	.LEHE233-.LEHB233
	.4byte	.L571-.LFB2840
	.byte	0
	.4byte	.LEHB234-.LFB2840
	.4byte	.LEHE234-.LEHB234
	.4byte	.L572-.LFB2840
	.byte	0
	.4byte	.LEHB235-.LFB2840
	.4byte	.LEHE235-.LEHB235
	.4byte	0
	.byte	0
	.4byte	.LEHB236-.LFB2840
	.4byte	.LEHE236-.LEHB236
	.4byte	.L573-.LFB2840
	.byte	0
	.4byte	.LEHB237-.LFB2840
	.4byte	.LEHE237-.LEHB237
	.4byte	.L574-.LFB2840
	.byte	0
	.4byte	.LEHB238-.LFB2840
	.4byte	.LEHE238-.LEHB238
	.4byte	0
	.byte	0
	.section	.text._ZZN7Bimorph3BufESt6bitsetILm32EEbENKUlvE0_clEv,"axG",@progbits,_ZZN7Bimorph3BufESt6bitsetILm32EEbENKUlvE0_clEv,comdat
	.size	_ZZN7Bimorph3BufESt6bitsetILm32EEbENKUlvE0_clEv, .-_ZZN7Bimorph3BufESt6bitsetILm32EEbENKUlvE0_clEv
	.section	.text._ZZZN7Bimorph3BufESt6bitsetILm32EEbENKUlvE0_clEvENKUlvE_clEv,"axG",@progbits,_ZZZN7Bimorph3BufESt6bitsetILm32EEbENKUlvE0_clEvENKUlvE_clEv,comdat
	.align	1
	.weak	_ZZZN7Bimorph3BufESt6bitsetILm32EEbENKUlvE0_clEvENKUlvE_clEv
	.type	_ZZZN7Bimorph3BufESt6bitsetILm32EEbENKUlvE0_clEvENKUlvE_clEv, @function
_ZZZN7Bimorph3BufESt6bitsetILm32EEbENKUlvE0_clEvENKUlvE_clEv:
.LFB2841:
	.cfi_startproc
	addi	sp,sp,-64
	.cfi_def_cfa_offset 64
	sd	ra,56(sp)
	sd	s0,48(sp)
	sd	s1,40(sp)
	.cfi_offset 1, -8
	.cfi_offset 8, -16
	.cfi_offset 9, -24
	addi	s0,sp,64
	.cfi_def_cfa 8, 0
	sd	a0,-56(s0)
	ld	a5,-56(s0)
	ld	a5,0(a5)
	ld	s1,40(a5)
	ld	a5,-56(s0)
	ld	a5,0(a5)
	addi	a5,a5,48
	mv	a0,a5
	call	_ZNKSt6bitsetILm32EE8to_ulongEv
	mv	a4,a0
	mv	a5,a4
	slli	a5,a5,1
	add	a5,a5,a4
	slli	a5,a5,11
	li	a2,0
	mv	a1,a5
	mv	a0,s1
	call	fseek
	mv	a5,a0
	sw	a5,-36(s0)
	lw	a5,-36(s0)
	sext.w	a5,a5
	snez	a5,a5
	andi	a5,a5,0xff
	mv	a0,a5
	ld	ra,56(sp)
	.cfi_restore 1
	ld	s0,48(sp)
	.cfi_restore 8
	.cfi_def_cfa 2, 64
	ld	s1,40(sp)
	.cfi_restore 9
	addi	sp,sp,64
	.cfi_def_cfa_offset 0
	jr	ra
	.cfi_endproc
.LFE2841:
	.size	_ZZZN7Bimorph3BufESt6bitsetILm32EEbENKUlvE0_clEvENKUlvE_clEv, .-_ZZZN7Bimorph3BufESt6bitsetILm32EEbENKUlvE0_clEvENKUlvE_clEv
	.section	.text._ZZZN7Bimorph3BufESt6bitsetILm32EEbENKUlvE0_clEvENKUlvE0_clEv,"axG",@progbits,_ZZZN7Bimorph3BufESt6bitsetILm32EEbENKUlvE0_clEvENKUlvE0_clEv,comdat
	.align	1
	.weak	_ZZZN7Bimorph3BufESt6bitsetILm32EEbENKUlvE0_clEvENKUlvE0_clEv
	.type	_ZZZN7Bimorph3BufESt6bitsetILm32EEbENKUlvE0_clEvENKUlvE0_clEv, @function
_ZZZN7Bimorph3BufESt6bitsetILm32EEbENKUlvE0_clEvENKUlvE0_clEv:
.LFB2842:
	.cfi_startproc
	addi	sp,sp,-48
	.cfi_def_cfa_offset 48
	sd	ra,40(sp)
	sd	s0,32(sp)
	.cfi_offset 1, -8
	.cfi_offset 8, -16
	addi	s0,sp,48
	.cfi_def_cfa 8, 0
	sd	a0,-40(s0)
	ld	a5,-40(s0)
	ld	a5,0(a5)
	addi	a4,a5,56
	ld	a5,-40(s0)
	ld	a5,0(a5)
	ld	a5,40(a5)
	mv	a3,a5
	li	a5,8192
	addi	a2,a5,-2048
	li	a1,1
	mv	a0,a4
	call	fwrite
	mv	a5,a0
	sw	a5,-20(s0)
	lw	a5,-20(s0)
	srliw	a5,a5,31
	andi	a5,a5,0xff
	mv	a0,a5
	ld	ra,40(sp)
	.cfi_restore 1
	ld	s0,32(sp)
	.cfi_restore 8
	.cfi_def_cfa 2, 48
	addi	sp,sp,48
	.cfi_def_cfa_offset 0
	jr	ra
	.cfi_endproc
.LFE2842:
	.size	_ZZZN7Bimorph3BufESt6bitsetILm32EEbENKUlvE0_clEvENKUlvE0_clEv, .-_ZZZN7Bimorph3BufESt6bitsetILm32EEbENKUlvE0_clEvENKUlvE0_clEv
	.section	.rodata
	.align	3
.LC78:
	.string	"\320\247\321\202\320\265\320\275\320\270\320\265 \320\264\320\260\320\275\320\275\321\213\321\205 \320\270\320\267 \321\204\320\260\320\271\320\273\320\260 offset="
	.section	.text._ZZN7Bimorph3BufESt6bitsetILm32EEbENKUlvE1_clEv,"axG",@progbits,_ZZN7Bimorph3BufESt6bitsetILm32EEbENKUlvE1_clEv,comdat
	.align	1
	.weak	_ZZN7Bimorph3BufESt6bitsetILm32EEbENKUlvE1_clEv
	.type	_ZZN7Bimorph3BufESt6bitsetILm32EEbENKUlvE1_clEv, @function
_ZZN7Bimorph3BufESt6bitsetILm32EEbENKUlvE1_clEv:
.LFB2843:
	.cfi_startproc
	.cfi_personality 0x9b,DW.ref.__gxx_personality_v0
	.cfi_lsda 0x1b,.LLSDA2843
	addi	sp,sp,-320
	.cfi_def_cfa_offset 320
	sd	ra,312(sp)
	sd	s0,304(sp)
	sd	s1,296(sp)
	.cfi_offset 1, -8
	.cfi_offset 8, -16
	.cfi_offset 9, -24
	addi	s0,sp,320
	.cfi_def_cfa 8, 0
	sd	a0,-312(s0)
	ld	a5,-312(s0)
	ld	a5,0(a5)
	lbu	a5,0(a5)
	bne	a5,zero,.L581
	ld	a5,-312(s0)
	ld	a5,8(a5)
	sd	a5,-296(s0)
	ld	a5,-312(s0)
	ld	a5,16(a5)
	sd	a5,-288(s0)
	addi	a5,s0,-296
	mv	a0,a5
.LEHB239:
	call	_ZZZN7Bimorph3BufESt6bitsetILm32EEbENKUlvE1_clEvENKUlvE_clEv
.LEHE239:
	mv	a5,a0
	beq	a5,zero,.L582
	addi	a5,s0,-248
	mv	a0,a5
	call	_ZNSaIcEC1Ev
	addi	a5,s0,-248
	addi	a4,s0,-280
	mv	a2,a5
	lui	a5,%hi(.LC75)
	addi	a1,a5,%lo(.LC75)
	mv	a0,a4
.LEHB240:
	call	_ZNSt7__cxx1112basic_stringIcSt11char_traitsIcESaIcEEC1EPKcRKS3_
.LEHE240:
	addi	a5,s0,-280
	li	a1,134
	mv	a0,a5
.LEHB241:
	call	_Z4mpreNSt7__cxx1112basic_stringIcSt11char_traitsIcESaIcEEEi
.LEHE241:
	addi	a5,s0,-280
	mv	a0,a5
	call	_ZNSt7__cxx1112basic_stringIcSt11char_traitsIcESaIcEED1Ev
	addi	a5,s0,-248
	mv	a0,a5
	call	_ZNSaIcED1Ev
	j	.L581
.L582:
	ld	a5,-312(s0)
	ld	a5,8(a5)
	sd	a5,-240(s0)
	addi	a5,s0,-240
	mv	a0,a5
.LEHB242:
	call	_ZZZN7Bimorph3BufESt6bitsetILm32EEbENKUlvE1_clEvENKUlvE0_clEv
.LEHE242:
	mv	a5,a0
	beq	a5,zero,.L583
	addi	a5,s0,-200
	mv	a0,a5
	call	_ZNSaIcEC1Ev
	addi	a5,s0,-200
	addi	a4,s0,-232
	mv	a2,a5
	lui	a5,%hi(.LC76)
	addi	a1,a5,%lo(.LC76)
	mv	a0,a4
.LEHB243:
	call	_ZNSt7__cxx1112basic_stringIcSt11char_traitsIcESaIcEEC1EPKcRKS3_
.LEHE243:
	addi	a5,s0,-232
	li	a1,135
	mv	a0,a5
.LEHB244:
	call	_Z4mpreNSt7__cxx1112basic_stringIcSt11char_traitsIcESaIcEEEi
.LEHE244:
	addi	a5,s0,-232
	mv	a0,a5
	call	_ZNSt7__cxx1112basic_stringIcSt11char_traitsIcESaIcEED1Ev
	addi	a5,s0,-200
	mv	a0,a5
	call	_ZNSaIcED1Ev
	j	.L581
.L583:
	ld	a5,-312(s0)
	ld	a5,8(a5)
	addi	a5,a5,48
	mv	a0,a5
	call	_ZNKSt6bitsetILm32EE8to_ulongEv
	mv	a4,a0
	addi	a5,s0,-96
	mv	a1,a4
	mv	a0,a5
.LEHB245:
	call	_ZNSt7__cxx119to_stringEm
.LEHE245:
	addi	a4,s0,-128
	addi	a5,s0,-96
	mv	a2,a5
	lui	a5,%hi(.LC78)
	addi	a1,a5,%lo(.LC78)
	mv	a0,a4
.LEHB246:
	call	_ZStplIcSt11char_traitsIcESaIcEENSt7__cxx1112basic_stringIT_T0_T1_EEPKS5_OS8_
.LEHE246:
	addi	a4,s0,-160
	addi	a3,s0,-128
	lui	a5,%hi(.LC64)
	addi	a2,a5,%lo(.LC64)
	mv	a1,a3
	mv	a0,a4
.LEHB247:
	call	_ZStplIcSt11char_traitsIcESaIcEENSt7__cxx1112basic_stringIT_T0_T1_EEOS8_PKS5_
.LEHE247:
	addi	a4,s0,-64
	li	a5,8192
	addi	a1,a5,-2048
	mv	a0,a4
.LEHB248:
	call	_ZNSt7__cxx119to_stringEm
.LEHE248:
	addi	a5,s0,-192
	addi	a3,s0,-64
	addi	a4,s0,-160
	mv	a2,a3
	mv	a1,a4
	mv	a0,a5
.LEHB249:
	call	_ZStplIcSt11char_traitsIcESaIcEENSt7__cxx1112basic_stringIT_T0_T1_EEOS8_S9_
.LEHE249:
	addi	a5,s0,-192
	li	a1,136
	mv	a0,a5
.LEHB250:
	call	_Z4mpreNSt7__cxx1112basic_stringIcSt11char_traitsIcESaIcEEEi
.LEHE250:
	addi	a5,s0,-192
	mv	a0,a5
	call	_ZNSt7__cxx1112basic_stringIcSt11char_traitsIcESaIcEED1Ev
	addi	a5,s0,-64
	mv	a0,a5
	call	_ZNSt7__cxx1112basic_stringIcSt11char_traitsIcESaIcEED1Ev
	addi	a5,s0,-160
	mv	a0,a5
	call	_ZNSt7__cxx1112basic_stringIcSt11char_traitsIcESaIcEED1Ev
	addi	a5,s0,-128
	mv	a0,a5
	call	_ZNSt7__cxx1112basic_stringIcSt11char_traitsIcESaIcEED1Ev
	addi	a5,s0,-96
	mv	a0,a5
	call	_ZNSt7__cxx1112basic_stringIcSt11char_traitsIcESaIcEED1Ev
.L581:
	li	a5,0
	j	.L603
.L595:
	mv	s1,a0
	addi	a5,s0,-280
	mv	a0,a5
	call	_ZNSt7__cxx1112basic_stringIcSt11char_traitsIcESaIcEED1Ev
	j	.L586
.L594:
	mv	s1,a0
.L586:
	addi	a5,s0,-248
	mv	a0,a5
	call	_ZNSaIcED1Ev
	mv	a5,s1
	mv	a0,a5
.LEHB251:
	call	_Unwind_Resume
.L597:
	mv	s1,a0
	addi	a5,s0,-232
	mv	a0,a5
	call	_ZNSt7__cxx1112basic_stringIcSt11char_traitsIcESaIcEED1Ev
	j	.L588
.L596:
	mv	s1,a0
.L588:
	addi	a5,s0,-200
	mv	a0,a5
	call	_ZNSaIcED1Ev
	mv	a5,s1
	mv	a0,a5
	call	_Unwind_Resume
.L602:
	mv	s1,a0
	addi	a5,s0,-192
	mv	a0,a5
	call	_ZNSt7__cxx1112basic_stringIcSt11char_traitsIcESaIcEED1Ev
	j	.L590
.L601:
	mv	s1,a0
.L590:
	addi	a5,s0,-64
	mv	a0,a5
	call	_ZNSt7__cxx1112basic_stringIcSt11char_traitsIcESaIcEED1Ev
	j	.L591
.L600:
	mv	s1,a0
.L591:
	addi	a5,s0,-160
	mv	a0,a5
	call	_ZNSt7__cxx1112basic_stringIcSt11char_traitsIcESaIcEED1Ev
	j	.L592
.L599:
	mv	s1,a0
.L592:
	addi	a5,s0,-128
	mv	a0,a5
	call	_ZNSt7__cxx1112basic_stringIcSt11char_traitsIcESaIcEED1Ev
	j	.L593
.L598:
	mv	s1,a0
.L593:
	addi	a5,s0,-96
	mv	a0,a5
	call	_ZNSt7__cxx1112basic_stringIcSt11char_traitsIcESaIcEED1Ev
	mv	a5,s1
	mv	a0,a5
	call	_Unwind_Resume
.LEHE251:
.L603:
	mv	a0,a5
	ld	ra,312(sp)
	.cfi_restore 1
	ld	s0,304(sp)
	.cfi_restore 8
	.cfi_def_cfa 2, 320
	ld	s1,296(sp)
	.cfi_restore 9
	addi	sp,sp,320
	.cfi_def_cfa_offset 0
	jr	ra
	.cfi_endproc
.LFE2843:
	.section	.gcc_except_table
.LLSDA2843:
	.byte	0xff
	.byte	0xff
	.byte	0x3
	.byte	0xa9,0x1
	.4byte	.LEHB239-.LFB2843
	.4byte	.LEHE239-.LEHB239
	.4byte	0
	.byte	0
	.4byte	.LEHB240-.LFB2843
	.4byte	.LEHE240-.LEHB240
	.4byte	.L594-.LFB2843
	.byte	0
	.4byte	.LEHB241-.LFB2843
	.4byte	.LEHE241-.LEHB241
	.4byte	.L595-.LFB2843
	.byte	0
	.4byte	.LEHB242-.LFB2843
	.4byte	.LEHE242-.LEHB242
	.4byte	0
	.byte	0
	.4byte	.LEHB243-.LFB2843
	.4byte	.LEHE243-.LEHB243
	.4byte	.L596-.LFB2843
	.byte	0
	.4byte	.LEHB244-.LFB2843
	.4byte	.LEHE244-.LEHB244
	.4byte	.L597-.LFB2843
	.byte	0
	.4byte	.LEHB245-.LFB2843
	.4byte	.LEHE245-.LEHB245
	.4byte	0
	.byte	0
	.4byte	.LEHB246-.LFB2843
	.4byte	.LEHE246-.LEHB246
	.4byte	.L598-.LFB2843
	.byte	0
	.4byte	.LEHB247-.LFB2843
	.4byte	.LEHE247-.LEHB247
	.4byte	.L599-.LFB2843
	.byte	0
	.4byte	.LEHB248-.LFB2843
	.4byte	.LEHE248-.LEHB248
	.4byte	.L600-.LFB2843
	.byte	0
	.4byte	.LEHB249-.LFB2843
	.4byte	.LEHE249-.LEHB249
	.4byte	.L601-.LFB2843
	.byte	0
	.4byte	.LEHB250-.LFB2843
	.4byte	.LEHE250-.LEHB250
	.4byte	.L602-.LFB2843
	.byte	0
	.4byte	.LEHB251-.LFB2843
	.4byte	.LEHE251-.LEHB251
	.4byte	0
	.byte	0
	.section	.text._ZZN7Bimorph3BufESt6bitsetILm32EEbENKUlvE1_clEv,"axG",@progbits,_ZZN7Bimorph3BufESt6bitsetILm32EEbENKUlvE1_clEv,comdat
	.size	_ZZN7Bimorph3BufESt6bitsetILm32EEbENKUlvE1_clEv, .-_ZZN7Bimorph3BufESt6bitsetILm32EEbENKUlvE1_clEv
	.section	.text._ZZZN7Bimorph3BufESt6bitsetILm32EEbENKUlvE1_clEvENKUlvE_clEv,"axG",@progbits,_ZZZN7Bimorph3BufESt6bitsetILm32EEbENKUlvE1_clEvENKUlvE_clEv,comdat
	.align	1
	.weak	_ZZZN7Bimorph3BufESt6bitsetILm32EEbENKUlvE1_clEvENKUlvE_clEv
	.type	_ZZZN7Bimorph3BufESt6bitsetILm32EEbENKUlvE1_clEvENKUlvE_clEv, @function
_ZZZN7Bimorph3BufESt6bitsetILm32EEbENKUlvE1_clEvENKUlvE_clEv:
.LFB2844:
	.cfi_startproc
	addi	sp,sp,-64
	.cfi_def_cfa_offset 64
	sd	ra,56(sp)
	sd	s0,48(sp)
	sd	s1,40(sp)
	.cfi_offset 1, -8
	.cfi_offset 8, -16
	.cfi_offset 9, -24
	addi	s0,sp,64
	.cfi_def_cfa 8, 0
	sd	a0,-56(s0)
	ld	a5,-56(s0)
	ld	a5,0(a5)
	ld	s1,40(a5)
	ld	a5,-56(s0)
	ld	a5,8(a5)
	mv	a0,a5
	call	_ZNKSt6bitsetILm32EE8to_ulongEv
	mv	a4,a0
	mv	a5,a4
	slli	a5,a5,1
	add	a5,a5,a4
	slli	a5,a5,11
	li	a2,0
	mv	a1,a5
	mv	a0,s1
	call	fseek
	mv	a5,a0
	sw	a5,-36(s0)
	lw	a5,-36(s0)
	sext.w	a5,a5
	snez	a5,a5
	andi	a5,a5,0xff
	mv	a0,a5
	ld	ra,56(sp)
	.cfi_restore 1
	ld	s0,48(sp)
	.cfi_restore 8
	.cfi_def_cfa 2, 64
	ld	s1,40(sp)
	.cfi_restore 9
	addi	sp,sp,64
	.cfi_def_cfa_offset 0
	jr	ra
	.cfi_endproc
.LFE2844:
	.size	_ZZZN7Bimorph3BufESt6bitsetILm32EEbENKUlvE1_clEvENKUlvE_clEv, .-_ZZZN7Bimorph3BufESt6bitsetILm32EEbENKUlvE1_clEvENKUlvE_clEv
	.section	.text._ZZZN7Bimorph3BufESt6bitsetILm32EEbENKUlvE1_clEvENKUlvE0_clEv,"axG",@progbits,_ZZZN7Bimorph3BufESt6bitsetILm32EEbENKUlvE1_clEvENKUlvE0_clEv,comdat
	.align	1
	.weak	_ZZZN7Bimorph3BufESt6bitsetILm32EEbENKUlvE1_clEvENKUlvE0_clEv
	.type	_ZZZN7Bimorph3BufESt6bitsetILm32EEbENKUlvE1_clEvENKUlvE0_clEv, @function
_ZZZN7Bimorph3BufESt6bitsetILm32EEbENKUlvE1_clEvENKUlvE0_clEv:
.LFB2845:
	.cfi_startproc
	addi	sp,sp,-48
	.cfi_def_cfa_offset 48
	sd	ra,40(sp)
	sd	s0,32(sp)
	.cfi_offset 1, -8
	.cfi_offset 8, -16
	addi	s0,sp,48
	.cfi_def_cfa 8, 0
	sd	a0,-40(s0)
	ld	a5,-40(s0)
	ld	a5,0(a5)
	addi	a4,a5,56
	ld	a5,-40(s0)
	ld	a5,0(a5)
	ld	a5,40(a5)
	mv	a3,a5
	li	a5,8192
	addi	a2,a5,-2048
	li	a1,1
	mv	a0,a4
	call	fread
	mv	a5,a0
	sw	a5,-20(s0)
	lw	a5,-20(s0)
	srliw	a5,a5,31
	andi	a5,a5,0xff
	mv	a0,a5
	ld	ra,40(sp)
	.cfi_restore 1
	ld	s0,32(sp)
	.cfi_restore 8
	.cfi_def_cfa 2, 48
	addi	sp,sp,48
	.cfi_def_cfa_offset 0
	jr	ra
	.cfi_endproc
.LFE2845:
	.size	_ZZZN7Bimorph3BufESt6bitsetILm32EEbENKUlvE1_clEvENKUlvE0_clEv, .-_ZZZN7Bimorph3BufESt6bitsetILm32EEbENKUlvE1_clEvENKUlvE0_clEv
	.section	.text._ZZN7Bimorph3BufESt6bitsetILm32EEbENKUlvE2_clEv,"axG",@progbits,_ZZN7Bimorph3BufESt6bitsetILm32EEbENKUlvE2_clEv,comdat
	.align	1
	.weak	_ZZN7Bimorph3BufESt6bitsetILm32EEbENKUlvE2_clEv
	.type	_ZZN7Bimorph3BufESt6bitsetILm32EEbENKUlvE2_clEv, @function
_ZZN7Bimorph3BufESt6bitsetILm32EEbENKUlvE2_clEv:
.LFB2846:
	.cfi_startproc
	addi	sp,sp,-32
	.cfi_def_cfa_offset 32
	sd	s0,24(sp)
	.cfi_offset 8, -8
	addi	s0,sp,32
	.cfi_def_cfa 8, 0
	sd	a0,-24(s0)
	ld	a5,-24(s0)
	ld	a4,8(a5)
	ld	a5,-24(s0)
	ld	a5,0(a5)
	ld	a4,0(a4)
	sd	a4,48(a5)
	li	a5,0
	mv	a0,a5
	ld	s0,24(sp)
	.cfi_restore 8
	.cfi_def_cfa 2, 32
	addi	sp,sp,32
	.cfi_def_cfa_offset 0
	jr	ra
	.cfi_endproc
.LFE2846:
	.size	_ZZN7Bimorph3BufESt6bitsetILm32EEbENKUlvE2_clEv, .-_ZZN7Bimorph3BufESt6bitsetILm32EEbENKUlvE2_clEv
	.section	.rodata
	.align	3
.LC79:
	.string	"\320\236\320\250\320\230\320\221\320\232\320\220 \321\207\321\202\320\265\320\275\320\270\321\217 \320\264\320\260\320\275\320\275\321\213\321\205 \320\270\320\267 \321\204\320\260\320\271\320\273\320\260"
	.align	3
.LC80:
	.string	"\320\236\320\250\320\230\320\221\320\232\320\220 \321\203\321\201\321\202\320\260\320\275\320\276\320\262\320\272\320\270 \320\260\320\264\321\200\320\265\321\201\320\260 \321\201\320\276\321\205\321\200\320\260\320\275\320\265\320\275\320\270\321\217"
	.section	.text._ZN7Bimorph3BufESt6bitsetILm32EEb,"axG",@progbits,_ZN7Bimorph3BufESt6bitsetILm32EEb,comdat
	.align	1
	.weak	_ZN7Bimorph3BufESt6bitsetILm32EEb
	.type	_ZN7Bimorph3BufESt6bitsetILm32EEb, @function
_ZN7Bimorph3BufESt6bitsetILm32EEb:
.LFB2836:
	.cfi_startproc
	.cfi_personality 0x9b,DW.ref.__gxx_personality_v0
	.cfi_lsda 0x1b,.LLSDA2836
	addi	sp,sp,-304
	.cfi_def_cfa_offset 304
	sd	ra,296(sp)
	sd	s0,288(sp)
	sd	s1,280(sp)
	.cfi_offset 1, -8
	.cfi_offset 8, -16
	.cfi_offset 9, -24
	addi	s0,sp,304
	.cfi_def_cfa 8, 0
	sd	a0,-280(s0)
	sd	a1,-288(s0)
	mv	a5,a2
	sb	a5,-289(s0)
	addi	a5,s0,-289
	sd	a5,-272(s0)
	ld	a5,-280(s0)
	sd	a5,-264(s0)
	addi	a5,s0,-288
	sd	a5,-256(s0)
	addi	a5,s0,-272
	mv	a0,a5
.LEHB252:
	call	_ZZN7Bimorph3BufESt6bitsetILm32EEbENKUlvE_clEv
.LEHE252:
	mv	a5,a0
	beq	a5,zero,.L611
	addi	a5,s0,-216
	mv	a0,a5
	call	_ZNSaIcEC1Ev
	addi	a5,s0,-216
	addi	a4,s0,-248
	mv	a2,a5
	lui	a5,%hi(.LC71)
	addi	a1,a5,%lo(.LC71)
	mv	a0,a4
.LEHB253:
	call	_ZNSt7__cxx1112basic_stringIcSt11char_traitsIcESaIcEEC1EPKcRKS3_
.LEHE253:
	addi	a5,s0,-248
	li	a1,125
	mv	a0,a5
.LEHB254:
	call	_Z4mpreNSt7__cxx1112basic_stringIcSt11char_traitsIcESaIcEEEi
.LEHE254:
	addi	a5,s0,-248
	mv	a0,a5
	call	_ZNSt7__cxx1112basic_stringIcSt11char_traitsIcESaIcEED1Ev
	addi	a5,s0,-216
	mv	a0,a5
	call	_ZNSaIcED1Ev
	j	.L612
.L611:
	addi	a5,s0,-289
	sd	a5,-208(s0)
	ld	a5,-280(s0)
	sd	a5,-200(s0)
	addi	a5,s0,-208
	mv	a0,a5
.LEHB255:
	call	_ZZN7Bimorph3BufESt6bitsetILm32EEbENKUlvE0_clEv
.LEHE255:
	mv	a5,a0
	beq	a5,zero,.L613
	addi	a5,s0,-160
	mv	a0,a5
	call	_ZNSaIcEC1Ev
	addi	a5,s0,-160
	addi	a4,s0,-192
	mv	a2,a5
	lui	a5,%hi(.LC79)
	addi	a1,a5,%lo(.LC79)
	mv	a0,a4
.LEHB256:
	call	_ZNSt7__cxx1112basic_stringIcSt11char_traitsIcESaIcEEC1EPKcRKS3_
.LEHE256:
	addi	a5,s0,-192
	li	a1,131
	mv	a0,a5
.LEHB257:
	call	_Z4mpreNSt7__cxx1112basic_stringIcSt11char_traitsIcESaIcEEEi
.LEHE257:
	addi	a5,s0,-192
	mv	a0,a5
	call	_ZNSt7__cxx1112basic_stringIcSt11char_traitsIcESaIcEED1Ev
	addi	a5,s0,-160
	mv	a0,a5
	call	_ZNSaIcED1Ev
	j	.L612
.L613:
	addi	a5,s0,-289
	sd	a5,-152(s0)
	ld	a5,-280(s0)
	sd	a5,-144(s0)
	addi	a5,s0,-288
	sd	a5,-136(s0)
	addi	a5,s0,-152
	mv	a0,a5
.LEHB258:
	call	_ZZN7Bimorph3BufESt6bitsetILm32EEbENKUlvE1_clEv
.LEHE258:
	mv	a5,a0
	beq	a5,zero,.L614
	addi	a5,s0,-96
	mv	a0,a5
	call	_ZNSaIcEC1Ev
	addi	a5,s0,-96
	addi	a4,s0,-128
	mv	a2,a5
	lui	a5,%hi(.LC79)
	addi	a1,a5,%lo(.LC79)
	mv	a0,a4
.LEHB259:
	call	_ZNSt7__cxx1112basic_stringIcSt11char_traitsIcESaIcEEC1EPKcRKS3_
.LEHE259:
	addi	a5,s0,-128
	li	a1,137
	mv	a0,a5
.LEHB260:
	call	_Z4mpreNSt7__cxx1112basic_stringIcSt11char_traitsIcESaIcEEEi
.LEHE260:
	addi	a5,s0,-128
	mv	a0,a5
	call	_ZNSt7__cxx1112basic_stringIcSt11char_traitsIcESaIcEED1Ev
	addi	a5,s0,-96
	mv	a0,a5
	call	_ZNSaIcED1Ev
	j	.L612
.L614:
	ld	a5,-280(s0)
	sd	a5,-88(s0)
	addi	a5,s0,-288
	sd	a5,-80(s0)
	addi	a5,s0,-88
	mv	a0,a5
	call	_ZZN7Bimorph3BufESt6bitsetILm32EEbENKUlvE2_clEv
	mv	a5,a0
	beq	a5,zero,.L615
	addi	a5,s0,-40
	mv	a0,a5
	call	_ZNSaIcEC1Ev
	addi	a5,s0,-40
	addi	a4,s0,-72
	mv	a2,a5
	lui	a5,%hi(.LC80)
	addi	a1,a5,%lo(.LC80)
	mv	a0,a4
.LEHB261:
	call	_ZNSt7__cxx1112basic_stringIcSt11char_traitsIcESaIcEEC1EPKcRKS3_
.LEHE261:
	addi	a5,s0,-72
	li	a1,138
	mv	a0,a5
.LEHB262:
	call	_Z4mpreNSt7__cxx1112basic_stringIcSt11char_traitsIcESaIcEEEi
.LEHE262:
	addi	a5,s0,-72
	mv	a0,a5
	call	_ZNSt7__cxx1112basic_stringIcSt11char_traitsIcESaIcEED1Ev
	addi	a5,s0,-40
	mv	a0,a5
	call	_ZNSaIcED1Ev
	j	.L612
.L615:
	li	a5,1
	j	.L633
.L612:
	li	a5,0
	j	.L633
.L626:
	mv	s1,a0
	addi	a5,s0,-248
	mv	a0,a5
	call	_ZNSt7__cxx1112basic_stringIcSt11char_traitsIcESaIcEED1Ev
	j	.L618
.L625:
	mv	s1,a0
.L618:
	addi	a5,s0,-216
	mv	a0,a5
	call	_ZNSaIcED1Ev
	mv	a5,s1
	mv	a0,a5
.LEHB263:
	call	_Unwind_Resume
.L628:
	mv	s1,a0
	addi	a5,s0,-192
	mv	a0,a5
	call	_ZNSt7__cxx1112basic_stringIcSt11char_traitsIcESaIcEED1Ev
	j	.L620
.L627:
	mv	s1,a0
.L620:
	addi	a5,s0,-160
	mv	a0,a5
	call	_ZNSaIcED1Ev
	mv	a5,s1
	mv	a0,a5
	call	_Unwind_Resume
.L630:
	mv	s1,a0
	addi	a5,s0,-128
	mv	a0,a5
	call	_ZNSt7__cxx1112basic_stringIcSt11char_traitsIcESaIcEED1Ev
	j	.L622
.L629:
	mv	s1,a0
.L622:
	addi	a5,s0,-96
	mv	a0,a5
	call	_ZNSaIcED1Ev
	mv	a5,s1
	mv	a0,a5
	call	_Unwind_Resume
.L632:
	mv	s1,a0
	addi	a5,s0,-72
	mv	a0,a5
	call	_ZNSt7__cxx1112basic_stringIcSt11char_traitsIcESaIcEED1Ev
	j	.L624
.L631:
	mv	s1,a0
.L624:
	addi	a5,s0,-40
	mv	a0,a5
	call	_ZNSaIcED1Ev
	mv	a5,s1
	mv	a0,a5
	call	_Unwind_Resume
.LEHE263:
.L633:
	mv	a0,a5
	ld	ra,296(sp)
	.cfi_restore 1
	ld	s0,288(sp)
	.cfi_restore 8
	.cfi_def_cfa 2, 304
	ld	s1,280(sp)
	.cfi_restore 9
	addi	sp,sp,304
	.cfi_def_cfa_offset 0
	jr	ra
	.cfi_endproc
.LFE2836:
	.section	.gcc_except_table
.LLSDA2836:
	.byte	0xff
	.byte	0xff
	.byte	0x3
	.byte	0x9c,0x1
	.4byte	.LEHB252-.LFB2836
	.4byte	.LEHE252-.LEHB252
	.4byte	0
	.byte	0
	.4byte	.LEHB253-.LFB2836
	.4byte	.LEHE253-.LEHB253
	.4byte	.L625-.LFB2836
	.byte	0
	.4byte	.LEHB254-.LFB2836
	.4byte	.LEHE254-.LEHB254
	.4byte	.L626-.LFB2836
	.byte	0
	.4byte	.LEHB255-.LFB2836
	.4byte	.LEHE255-.LEHB255
	.4byte	0
	.byte	0
	.4byte	.LEHB256-.LFB2836
	.4byte	.LEHE256-.LEHB256
	.4byte	.L627-.LFB2836
	.byte	0
	.4byte	.LEHB257-.LFB2836
	.4byte	.LEHE257-.LEHB257
	.4byte	.L628-.LFB2836
	.byte	0
	.4byte	.LEHB258-.LFB2836
	.4byte	.LEHE258-.LEHB258
	.4byte	0
	.byte	0
	.4byte	.LEHB259-.LFB2836
	.4byte	.LEHE259-.LEHB259
	.4byte	.L629-.LFB2836
	.byte	0
	.4byte	.LEHB260-.LFB2836
	.4byte	.LEHE260-.LEHB260
	.4byte	.L630-.LFB2836
	.byte	0
	.4byte	.LEHB261-.LFB2836
	.4byte	.LEHE261-.LEHB261
	.4byte	.L631-.LFB2836
	.byte	0
	.4byte	.LEHB262-.LFB2836
	.4byte	.LEHE262-.LEHB262
	.4byte	.L632-.LFB2836
	.byte	0
	.4byte	.LEHB263-.LFB2836
	.4byte	.LEHE263-.LEHB263
	.4byte	0
	.byte	0
	.section	.text._ZN7Bimorph3BufESt6bitsetILm32EEb,"axG",@progbits,_ZN7Bimorph3BufESt6bitsetILm32EEb,comdat
	.size	_ZN7Bimorph3BufESt6bitsetILm32EEb, .-_ZN7Bimorph3BufESt6bitsetILm32EEb
	.text
	.align	1
	.globl	main
	.type	main, @function
main:
.LFB2847:
	.cfi_startproc
	.cfi_personality 0x9b,DW.ref.__gxx_personality_v0
	.cfi_lsda 0x1b,.LLSDA2847
	addi	sp,sp,-64
	.cfi_def_cfa_offset 64
	sd	ra,56(sp)
	sd	s0,48(sp)
	sd	s1,40(sp)
	sd	s2,32(sp)
	.cfi_offset 1, -8
	.cfi_offset 8, -16
	.cfi_offset 9, -24
	.cfi_offset 18, -32
	addi	s0,sp,64
	.cfi_def_cfa 8, 0
	mv	a5,a0
	sd	a1,-64(s0)
	sw	a5,-52(s0)
	li	a5,8192
	addi	a0,a5,-1880
.LEHB264:
	call	_Znwm
.LEHE264:
	mv	a5,a0
	mv	s1,a5
	mv	a0,s1
.LEHB265:
	call	_ZN7BimorphC1Ev
.LEHE265:
	sd	s1,-40(s0)
	li	a1,-1
	ld	a0,-40(s0)
.LEHB266:
	call	_ZN7Bimorph3ValEi
	li	a5,0
	j	.L638
.L637:
	mv	s2,a0
	li	a5,8192
	addi	a1,a5,-1880
	mv	a0,s1
	call	_ZdlPvm
	mv	a5,s2
	mv	a0,a5
	call	_Unwind_Resume
.LEHE266:
.L638:
	mv	a0,a5
	ld	ra,56(sp)
	.cfi_restore 1
	ld	s0,48(sp)
	.cfi_restore 8
	.cfi_def_cfa 2, 64
	ld	s1,40(sp)
	.cfi_restore 9
	ld	s2,32(sp)
	.cfi_restore 18
	addi	sp,sp,64
	.cfi_def_cfa_offset 0
	jr	ra
	.cfi_endproc
.LFE2847:
	.section	.gcc_except_table
.LLSDA2847:
	.byte	0xff
	.byte	0xff
	.byte	0x3
	.byte	0x27
	.4byte	.LEHB264-.LFB2847
	.4byte	.LEHE264-.LEHB264
	.4byte	0
	.byte	0
	.4byte	.LEHB265-.LFB2847
	.4byte	.LEHE265-.LEHB265
	.4byte	.L637-.LFB2847
	.byte	0
	.4byte	.LEHB266-.LFB2847
	.4byte	.LEHE266-.LEHB266
	.4byte	0
	.byte	0
	.text
	.size	main, .-main
	.section	.text._ZN9__gnu_cxx12__to_xstringINSt7__cxx1112basic_stringIcSt11char_traitsIcESaIcEEEcEET_PFiPT0_mPKS8_PvEmSB_z,"axG",@progbits,_ZN9__gnu_cxx12__to_xstringINSt7__cxx1112basic_stringIcSt11char_traitsIcESaIcEEEcEET_PFiPT0_mPKS8_PvEmSB_z,comdat
	.align	1
	.weak	_ZN9__gnu_cxx12__to_xstringINSt7__cxx1112basic_stringIcSt11char_traitsIcESaIcEEEcEET_PFiPT0_mPKS8_PvEmSB_z
	.type	_ZN9__gnu_cxx12__to_xstringINSt7__cxx1112basic_stringIcSt11char_traitsIcESaIcEEEcEET_PFiPT0_mPKS8_PvEmSB_z, @function
_ZN9__gnu_cxx12__to_xstringINSt7__cxx1112basic_stringIcSt11char_traitsIcESaIcEEEcEET_PFiPT0_mPKS8_PvEmSB_z:
.LFB2921:
	.cfi_startproc
	.cfi_personality 0x9b,DW.ref.__gxx_personality_v0
	.cfi_lsda 0x1b,.LLSDA2921
	addi	sp,sp,-144
	.cfi_def_cfa_offset 144
	sd	ra,104(sp)
	sd	s0,96(sp)
	sd	s1,88(sp)
	.cfi_offset 1, -40
	.cfi_offset 8, -48
	.cfi_offset 9, -56
	addi	s0,sp,112
	.cfi_def_cfa 8, 32
	sd	a0,-72(s0)
	sd	a1,-80(s0)
	sd	a2,-88(s0)
	sd	a3,-96(s0)
	sd	a4,0(s0)
	sd	a5,8(s0)
	sd	a6,16(s0)
	sd	a7,24(s0)
	ld	a5,-88(s0)
	addi	a5,a5,15
	srli	a5,a5,4
	slli	a5,a5,4
	sub	sp,sp,a5
	mv	a5,sp
	addi	a5,a5,15
	srli	a5,a5,4
	slli	a5,a5,4
	sd	a5,-40(s0)
	addi	a5,s0,32
	sd	a5,-104(s0)
	ld	a5,-104(s0)
	addi	a5,a5,-32
	sd	a5,-56(s0)
	ld	a5,-56(s0)
	ld	a4,-80(s0)
	mv	a3,a5
	ld	a2,-96(s0)
	ld	a1,-88(s0)
	ld	a0,-40(s0)
.LEHB267:
	jalr	a4
.LEHE267:
	mv	a5,a0
	sw	a5,-44(s0)
	lw	a5,-44(s0)
	ld	a4,-40(s0)
	add	s1,a4,a5
	addi	a5,s0,-48
	mv	a0,a5
	call	_ZNSaIcEC1Ev
	addi	a5,s0,-48
	mv	a3,a5
	mv	a2,s1
	ld	a1,-40(s0)
	ld	a0,-72(s0)
.LEHB268:
	call	_ZNSt7__cxx1112basic_stringIcSt11char_traitsIcESaIcEEC1IPcvEET_S7_RKS3_
.LEHE268:
	addi	a5,s0,-48
	mv	a0,a5
	call	_ZNSaIcED1Ev
	j	.L643
.L642:
	mv	s1,a0
	addi	a5,s0,-48
	mv	a0,a5
	call	_ZNSaIcED1Ev
	mv	a5,s1
	mv	a0,a5
.LEHB269:
	call	_Unwind_Resume
.LEHE269:
.L643:
	ld	a0,-72(s0)
	addi	sp,s0,-112
	.cfi_def_cfa 2, 144
	ld	ra,104(sp)
	.cfi_restore 1
	ld	s0,96(sp)
	.cfi_restore 8
	ld	s1,88(sp)
	.cfi_restore 9
	addi	sp,sp,144
	.cfi_def_cfa_offset 0
	jr	ra
	.cfi_endproc
.LFE2921:
	.section	.gcc_except_table
.LLSDA2921:
	.byte	0xff
	.byte	0xff
	.byte	0x3
	.byte	0x27
	.4byte	.LEHB267-.LFB2921
	.4byte	.LEHE267-.LEHB267
	.4byte	0
	.byte	0
	.4byte	.LEHB268-.LFB2921
	.4byte	.LEHE268-.LEHB268
	.4byte	.L642-.LFB2921
	.byte	0
	.4byte	.LEHB269-.LFB2921
	.4byte	.LEHE269-.LEHB269
	.4byte	0
	.byte	0
	.section	.text._ZN9__gnu_cxx12__to_xstringINSt7__cxx1112basic_stringIcSt11char_traitsIcESaIcEEEcEET_PFiPT0_mPKS8_PvEmSB_z,"axG",@progbits,_ZN9__gnu_cxx12__to_xstringINSt7__cxx1112basic_stringIcSt11char_traitsIcESaIcEEEcEET_PFiPT0_mPKS8_PvEmSB_z,comdat
	.size	_ZN9__gnu_cxx12__to_xstringINSt7__cxx1112basic_stringIcSt11char_traitsIcESaIcEEEcEET_PFiPT0_mPKS8_PvEmSB_z, .-_ZN9__gnu_cxx12__to_xstringINSt7__cxx1112basic_stringIcSt11char_traitsIcESaIcEEEcEET_PFiPT0_mPKS8_PvEmSB_z
	.section	.text._ZNSt7__cxx1112basic_stringIcSt11char_traitsIcESaIcEE12_Alloc_hiderD2Ev,"axG",@progbits,_ZNSt7__cxx1112basic_stringIcSt11char_traitsIcESaIcEE12_Alloc_hiderD5Ev,comdat
	.align	1
	.weak	_ZNSt7__cxx1112basic_stringIcSt11char_traitsIcESaIcEE12_Alloc_hiderD2Ev
	.type	_ZNSt7__cxx1112basic_stringIcSt11char_traitsIcESaIcEE12_Alloc_hiderD2Ev, @function
_ZNSt7__cxx1112basic_stringIcSt11char_traitsIcESaIcEE12_Alloc_hiderD2Ev:
.LFB2924:
	.cfi_startproc
	addi	sp,sp,-32
	.cfi_def_cfa_offset 32
	sd	ra,24(sp)
	sd	s0,16(sp)
	.cfi_offset 1, -8
	.cfi_offset 8, -16
	addi	s0,sp,32
	.cfi_def_cfa 8, 0
	sd	a0,-24(s0)
	ld	a0,-24(s0)
	call	_ZNSaIcED2Ev
	nop
	ld	ra,24(sp)
	.cfi_restore 1
	ld	s0,16(sp)
	.cfi_restore 8
	.cfi_def_cfa 2, 32
	addi	sp,sp,32
	.cfi_def_cfa_offset 0
	jr	ra
	.cfi_endproc
.LFE2924:
	.size	_ZNSt7__cxx1112basic_stringIcSt11char_traitsIcESaIcEE12_Alloc_hiderD2Ev, .-_ZNSt7__cxx1112basic_stringIcSt11char_traitsIcESaIcEE12_Alloc_hiderD2Ev
	.weak	_ZNSt7__cxx1112basic_stringIcSt11char_traitsIcESaIcEE12_Alloc_hiderD1Ev
	.set	_ZNSt7__cxx1112basic_stringIcSt11char_traitsIcESaIcEE12_Alloc_hiderD1Ev,_ZNSt7__cxx1112basic_stringIcSt11char_traitsIcESaIcEE12_Alloc_hiderD2Ev
	.section	.text._ZStplIcSt11char_traitsIcESaIcEENSt7__cxx1112basic_stringIT_T0_T1_EEOS8_S9_,"axG",@progbits,_ZStplIcSt11char_traitsIcESaIcEENSt7__cxx1112basic_stringIT_T0_T1_EEOS8_S9_,comdat
	.align	1
	.weak	_ZStplIcSt11char_traitsIcESaIcEENSt7__cxx1112basic_stringIT_T0_T1_EEOS8_S9_
	.type	_ZStplIcSt11char_traitsIcESaIcEENSt7__cxx1112basic_stringIT_T0_T1_EEOS8_S9_, @function
_ZStplIcSt11char_traitsIcESaIcEENSt7__cxx1112basic_stringIT_T0_T1_EEOS8_S9_:
.LFB3080:
	.cfi_startproc
	addi	sp,sp,-80
	.cfi_def_cfa_offset 80
	sd	ra,72(sp)
	sd	s0,64(sp)
	sd	s1,56(sp)
	.cfi_offset 1, -8
	.cfi_offset 8, -16
	.cfi_offset 9, -24
	addi	s0,sp,80
	.cfi_def_cfa 8, 0
	sd	a0,-56(s0)
	sd	a1,-64(s0)
	sd	a2,-72(s0)
	ld	a0,-64(s0)
	call	_ZNKSt7__cxx1112basic_stringIcSt11char_traitsIcESaIcEE4sizeEv
	mv	s1,a0
	ld	a0,-72(s0)
	call	_ZNKSt7__cxx1112basic_stringIcSt11char_traitsIcESaIcEE4sizeEv
	mv	a5,a0
	add	a5,s1,a5
	sd	a5,-40(s0)
	ld	a0,-64(s0)
	call	_ZNKSt7__cxx1112basic_stringIcSt11char_traitsIcESaIcEE8capacityEv
	mv	a4,a0
	ld	a5,-40(s0)
	bleu	a5,a4,.L646
	ld	a0,-72(s0)
	call	_ZNKSt7__cxx1112basic_stringIcSt11char_traitsIcESaIcEE8capacityEv
	mv	a4,a0
	ld	a5,-40(s0)
	bgtu	a5,a4,.L646
	li	a5,1
	j	.L647
.L646:
	li	a5,0
.L647:
	sb	a5,-41(s0)
	lbu	a5,-41(s0)
	andi	a5,a5,0xff
	beq	a5,zero,.L648
	ld	a2,-64(s0)
	li	a1,0
	ld	a0,-72(s0)
	call	_ZNSt7__cxx1112basic_stringIcSt11char_traitsIcESaIcEE6insertEmRKS4_
	mv	a5,a0
	mv	a0,a5
	call	_ZSt4moveIRNSt7__cxx1112basic_stringIcSt11char_traitsIcESaIcEEEEONSt16remove_referenceIT_E4typeEOS8_
	mv	a5,a0
	j	.L649
.L648:
	ld	a1,-72(s0)
	ld	a0,-64(s0)
	call	_ZNSt7__cxx1112basic_stringIcSt11char_traitsIcESaIcEE6appendERKS4_
	mv	a5,a0
	mv	a0,a5
	call	_ZSt4moveIRNSt7__cxx1112basic_stringIcSt11char_traitsIcESaIcEEEEONSt16remove_referenceIT_E4typeEOS8_
	mv	a5,a0
.L649:
	mv	a1,a5
	ld	a0,-56(s0)
	call	_ZNSt7__cxx1112basic_stringIcSt11char_traitsIcESaIcEEC1EOS4_
	ld	a0,-56(s0)
	ld	ra,72(sp)
	.cfi_restore 1
	ld	s0,64(sp)
	.cfi_restore 8
	.cfi_def_cfa 2, 80
	ld	s1,56(sp)
	.cfi_restore 9
	addi	sp,sp,80
	.cfi_def_cfa_offset 0
	jr	ra
	.cfi_endproc
.LFE3080:
	.size	_ZStplIcSt11char_traitsIcESaIcEENSt7__cxx1112basic_stringIT_T0_T1_EEOS8_S9_, .-_ZStplIcSt11char_traitsIcESaIcEENSt7__cxx1112basic_stringIT_T0_T1_EEOS8_S9_
	.section	.text._ZStplIcSt11char_traitsIcESaIcEENSt7__cxx1112basic_stringIT_T0_T1_EEPKS5_OS8_,"axG",@progbits,_ZStplIcSt11char_traitsIcESaIcEENSt7__cxx1112basic_stringIT_T0_T1_EEPKS5_OS8_,comdat
	.align	1
	.weak	_ZStplIcSt11char_traitsIcESaIcEENSt7__cxx1112basic_stringIT_T0_T1_EEPKS5_OS8_
	.type	_ZStplIcSt11char_traitsIcESaIcEENSt7__cxx1112basic_stringIT_T0_T1_EEPKS5_OS8_, @function
_ZStplIcSt11char_traitsIcESaIcEENSt7__cxx1112basic_stringIT_T0_T1_EEPKS5_OS8_:
.LFB3081:
	.cfi_startproc
	addi	sp,sp,-48
	.cfi_def_cfa_offset 48
	sd	ra,40(sp)
	sd	s0,32(sp)
	.cfi_offset 1, -8
	.cfi_offset 8, -16
	addi	s0,sp,48
	.cfi_def_cfa 8, 0
	sd	a0,-24(s0)
	sd	a1,-32(s0)
	sd	a2,-40(s0)
	ld	a2,-32(s0)
	li	a1,0
	ld	a0,-40(s0)
	call	_ZNSt7__cxx1112basic_stringIcSt11char_traitsIcESaIcEE6insertEmPKc
	mv	a5,a0
	mv	a0,a5
	call	_ZSt4moveIRNSt7__cxx1112basic_stringIcSt11char_traitsIcESaIcEEEEONSt16remove_referenceIT_E4typeEOS8_
	mv	a5,a0
	mv	a1,a5
	ld	a0,-24(s0)
	call	_ZNSt7__cxx1112basic_stringIcSt11char_traitsIcESaIcEEC1EOS4_
	ld	a0,-24(s0)
	ld	ra,40(sp)
	.cfi_restore 1
	ld	s0,32(sp)
	.cfi_restore 8
	.cfi_def_cfa 2, 48
	addi	sp,sp,48
	.cfi_def_cfa_offset 0
	jr	ra
	.cfi_endproc
.LFE3081:
	.size	_ZStplIcSt11char_traitsIcESaIcEENSt7__cxx1112basic_stringIT_T0_T1_EEPKS5_OS8_, .-_ZStplIcSt11char_traitsIcESaIcEENSt7__cxx1112basic_stringIT_T0_T1_EEPKS5_OS8_
	.section	.text._ZNKSt6bitsetILm8EE8to_ulongEv,"axG",@progbits,_ZNKSt6bitsetILm8EE8to_ulongEv,comdat
	.align	1
	.weak	_ZNKSt6bitsetILm8EE8to_ulongEv
	.type	_ZNKSt6bitsetILm8EE8to_ulongEv, @function
_ZNKSt6bitsetILm8EE8to_ulongEv:
.LFB3110:
	.cfi_startproc
	addi	sp,sp,-32
	.cfi_def_cfa_offset 32
	sd	ra,24(sp)
	sd	s0,16(sp)
	.cfi_offset 1, -8
	.cfi_offset 8, -16
	addi	s0,sp,32
	.cfi_def_cfa 8, 0
	sd	a0,-24(s0)
	ld	a5,-24(s0)
	mv	a0,a5
	call	_ZNKSt12_Base_bitsetILm1EE14_M_do_to_ulongEv
	mv	a5,a0
	mv	a0,a5
	ld	ra,24(sp)
	.cfi_restore 1
	ld	s0,16(sp)
	.cfi_restore 8
	.cfi_def_cfa 2, 32
	addi	sp,sp,32
	.cfi_def_cfa_offset 0
	jr	ra
	.cfi_endproc
.LFE3110:
	.size	_ZNKSt6bitsetILm8EE8to_ulongEv, .-_ZNKSt6bitsetILm8EE8to_ulongEv
	.section	.text._ZNKSt6bitsetILm8EE9to_stringB5cxx11Ev,"axG",@progbits,_ZNKSt6bitsetILm8EE9to_stringB5cxx11Ev,comdat
	.align	1
	.weak	_ZNKSt6bitsetILm8EE9to_stringB5cxx11Ev
	.type	_ZNKSt6bitsetILm8EE9to_stringB5cxx11Ev, @function
_ZNKSt6bitsetILm8EE9to_stringB5cxx11Ev:
.LFB3112:
	.cfi_startproc
	addi	sp,sp,-32
	.cfi_def_cfa_offset 32
	sd	ra,24(sp)
	sd	s0,16(sp)
	.cfi_offset 1, -8
	.cfi_offset 8, -16
	addi	s0,sp,32
	.cfi_def_cfa 8, 0
	sd	a0,-24(s0)
	sd	a1,-32(s0)
	ld	a5,-24(s0)
	ld	a1,-32(s0)
	mv	a0,a5
	call	_ZNKSt6bitsetILm8EE9to_stringIcSt11char_traitsIcESaIcEEENSt7__cxx1112basic_stringIT_T0_T1_EEv
	ld	a0,-24(s0)
	ld	ra,24(sp)
	.cfi_restore 1
	ld	s0,16(sp)
	.cfi_restore 8
	.cfi_def_cfa 2, 32
	addi	sp,sp,32
	.cfi_def_cfa_offset 0
	jr	ra
	.cfi_endproc
.LFE3112:
	.size	_ZNKSt6bitsetILm8EE9to_stringB5cxx11Ev, .-_ZNKSt6bitsetILm8EE9to_stringB5cxx11Ev
	.section	.text._ZStplIcSt11char_traitsIcESaIcEENSt7__cxx1112basic_stringIT_T0_T1_EEOS8_PKS5_,"axG",@progbits,_ZStplIcSt11char_traitsIcESaIcEENSt7__cxx1112basic_stringIT_T0_T1_EEOS8_PKS5_,comdat
	.align	1
	.weak	_ZStplIcSt11char_traitsIcESaIcEENSt7__cxx1112basic_stringIT_T0_T1_EEOS8_PKS5_
	.type	_ZStplIcSt11char_traitsIcESaIcEENSt7__cxx1112basic_stringIT_T0_T1_EEOS8_PKS5_, @function
_ZStplIcSt11char_traitsIcESaIcEENSt7__cxx1112basic_stringIT_T0_T1_EEOS8_PKS5_:
.LFB3113:
	.cfi_startproc
	addi	sp,sp,-48
	.cfi_def_cfa_offset 48
	sd	ra,40(sp)
	sd	s0,32(sp)
	.cfi_offset 1, -8
	.cfi_offset 8, -16
	addi	s0,sp,48
	.cfi_def_cfa 8, 0
	sd	a0,-24(s0)
	sd	a1,-32(s0)
	sd	a2,-40(s0)
	ld	a1,-40(s0)
	ld	a0,-32(s0)
	call	_ZNSt7__cxx1112basic_stringIcSt11char_traitsIcESaIcEE6appendEPKc
	mv	a5,a0
	mv	a0,a5
	call	_ZSt4moveIRNSt7__cxx1112basic_stringIcSt11char_traitsIcESaIcEEEEONSt16remove_referenceIT_E4typeEOS8_
	mv	a5,a0
	mv	a1,a5
	ld	a0,-24(s0)
	call	_ZNSt7__cxx1112basic_stringIcSt11char_traitsIcESaIcEEC1EOS4_
	ld	a0,-24(s0)
	ld	ra,40(sp)
	.cfi_restore 1
	ld	s0,32(sp)
	.cfi_restore 8
	.cfi_def_cfa 2, 48
	addi	sp,sp,48
	.cfi_def_cfa_offset 0
	jr	ra
	.cfi_endproc
.LFE3113:
	.size	_ZStplIcSt11char_traitsIcESaIcEENSt7__cxx1112basic_stringIT_T0_T1_EEOS8_PKS5_, .-_ZStplIcSt11char_traitsIcESaIcEENSt7__cxx1112basic_stringIT_T0_T1_EEOS8_PKS5_
	.section	.text._ZNKSt6bitsetILm24EE8to_ulongEv,"axG",@progbits,_ZNKSt6bitsetILm24EE8to_ulongEv,comdat
	.align	1
	.weak	_ZNKSt6bitsetILm24EE8to_ulongEv
	.type	_ZNKSt6bitsetILm24EE8to_ulongEv, @function
_ZNKSt6bitsetILm24EE8to_ulongEv:
.LFB3114:
	.cfi_startproc
	addi	sp,sp,-32
	.cfi_def_cfa_offset 32
	sd	ra,24(sp)
	sd	s0,16(sp)
	.cfi_offset 1, -8
	.cfi_offset 8, -16
	addi	s0,sp,32
	.cfi_def_cfa 8, 0
	sd	a0,-24(s0)
	ld	a5,-24(s0)
	mv	a0,a5
	call	_ZNKSt12_Base_bitsetILm1EE14_M_do_to_ulongEv
	mv	a5,a0
	mv	a0,a5
	ld	ra,24(sp)
	.cfi_restore 1
	ld	s0,16(sp)
	.cfi_restore 8
	.cfi_def_cfa 2, 32
	addi	sp,sp,32
	.cfi_def_cfa_offset 0
	jr	ra
	.cfi_endproc
.LFE3114:
	.size	_ZNKSt6bitsetILm24EE8to_ulongEv, .-_ZNKSt6bitsetILm24EE8to_ulongEv
	.section	.text._ZNKSt6bitsetILm24EE9to_stringB5cxx11Ev,"axG",@progbits,_ZNKSt6bitsetILm24EE9to_stringB5cxx11Ev,comdat
	.align	1
	.weak	_ZNKSt6bitsetILm24EE9to_stringB5cxx11Ev
	.type	_ZNKSt6bitsetILm24EE9to_stringB5cxx11Ev, @function
_ZNKSt6bitsetILm24EE9to_stringB5cxx11Ev:
.LFB3115:
	.cfi_startproc
	addi	sp,sp,-32
	.cfi_def_cfa_offset 32
	sd	ra,24(sp)
	sd	s0,16(sp)
	.cfi_offset 1, -8
	.cfi_offset 8, -16
	addi	s0,sp,32
	.cfi_def_cfa 8, 0
	sd	a0,-24(s0)
	sd	a1,-32(s0)
	ld	a5,-24(s0)
	ld	a1,-32(s0)
	mv	a0,a5
	call	_ZNKSt6bitsetILm24EE9to_stringIcSt11char_traitsIcESaIcEEENSt7__cxx1112basic_stringIT_T0_T1_EEv
	ld	a0,-24(s0)
	ld	ra,24(sp)
	.cfi_restore 1
	ld	s0,16(sp)
	.cfi_restore 8
	.cfi_def_cfa 2, 32
	addi	sp,sp,32
	.cfi_def_cfa_offset 0
	jr	ra
	.cfi_endproc
.LFE3115:
	.size	_ZNKSt6bitsetILm24EE9to_stringB5cxx11Ev, .-_ZNKSt6bitsetILm24EE9to_stringB5cxx11Ev
	.section	.text._ZNKSt6bitsetILm32EE8to_ulongEv,"axG",@progbits,_ZNKSt6bitsetILm32EE8to_ulongEv,comdat
	.align	1
	.weak	_ZNKSt6bitsetILm32EE8to_ulongEv
	.type	_ZNKSt6bitsetILm32EE8to_ulongEv, @function
_ZNKSt6bitsetILm32EE8to_ulongEv:
.LFB3116:
	.cfi_startproc
	addi	sp,sp,-32
	.cfi_def_cfa_offset 32
	sd	ra,24(sp)
	sd	s0,16(sp)
	.cfi_offset 1, -8
	.cfi_offset 8, -16
	addi	s0,sp,32
	.cfi_def_cfa 8, 0
	sd	a0,-24(s0)
	ld	a5,-24(s0)
	mv	a0,a5
	call	_ZNKSt12_Base_bitsetILm1EE14_M_do_to_ulongEv
	mv	a5,a0
	mv	a0,a5
	ld	ra,24(sp)
	.cfi_restore 1
	ld	s0,16(sp)
	.cfi_restore 8
	.cfi_def_cfa 2, 32
	addi	sp,sp,32
	.cfi_def_cfa_offset 0
	jr	ra
	.cfi_endproc
.LFE3116:
	.size	_ZNKSt6bitsetILm32EE8to_ulongEv, .-_ZNKSt6bitsetILm32EE8to_ulongEv
	.section	.text._ZNKSt6bitsetILm32EE9to_stringB5cxx11Ev,"axG",@progbits,_ZNKSt6bitsetILm32EE9to_stringB5cxx11Ev,comdat
	.align	1
	.weak	_ZNKSt6bitsetILm32EE9to_stringB5cxx11Ev
	.type	_ZNKSt6bitsetILm32EE9to_stringB5cxx11Ev, @function
_ZNKSt6bitsetILm32EE9to_stringB5cxx11Ev:
.LFB3117:
	.cfi_startproc
	addi	sp,sp,-32
	.cfi_def_cfa_offset 32
	sd	ra,24(sp)
	sd	s0,16(sp)
	.cfi_offset 1, -8
	.cfi_offset 8, -16
	addi	s0,sp,32
	.cfi_def_cfa 8, 0
	sd	a0,-24(s0)
	sd	a1,-32(s0)
	ld	a5,-24(s0)
	ld	a1,-32(s0)
	mv	a0,a5
	call	_ZNKSt6bitsetILm32EE9to_stringIcSt11char_traitsIcESaIcEEENSt7__cxx1112basic_stringIT_T0_T1_EEv
	ld	a0,-24(s0)
	ld	ra,24(sp)
	.cfi_restore 1
	ld	s0,16(sp)
	.cfi_restore 8
	.cfi_def_cfa 2, 32
	addi	sp,sp,32
	.cfi_def_cfa_offset 0
	jr	ra
	.cfi_endproc
.LFE3117:
	.size	_ZNKSt6bitsetILm32EE9to_stringB5cxx11Ev, .-_ZNKSt6bitsetILm32EE9to_stringB5cxx11Ev
	.section	.text._ZStneIcSt11char_traitsIcESaIcEEbPKT_RKNSt7__cxx1112basic_stringIS3_T0_T1_EE,"axG",@progbits,_ZStneIcSt11char_traitsIcESaIcEEbPKT_RKNSt7__cxx1112basic_stringIS3_T0_T1_EE,comdat
	.align	1
	.weak	_ZStneIcSt11char_traitsIcESaIcEEbPKT_RKNSt7__cxx1112basic_stringIS3_T0_T1_EE
	.type	_ZStneIcSt11char_traitsIcESaIcEEbPKT_RKNSt7__cxx1112basic_stringIS3_T0_T1_EE, @function
_ZStneIcSt11char_traitsIcESaIcEEbPKT_RKNSt7__cxx1112basic_stringIS3_T0_T1_EE:
.LFB3121:
	.cfi_startproc
	addi	sp,sp,-32
	.cfi_def_cfa_offset 32
	sd	ra,24(sp)
	sd	s0,16(sp)
	.cfi_offset 1, -8
	.cfi_offset 8, -16
	addi	s0,sp,32
	.cfi_def_cfa 8, 0
	sd	a0,-24(s0)
	sd	a1,-32(s0)
	ld	a1,-32(s0)
	ld	a0,-24(s0)
	call	_ZSteqIcSt11char_traitsIcESaIcEEbPKT_RKNSt7__cxx1112basic_stringIS3_T0_T1_EE
	mv	a5,a0
	xori	a5,a5,1
	andi	a5,a5,0xff
	mv	a0,a5
	ld	ra,24(sp)
	.cfi_restore 1
	ld	s0,16(sp)
	.cfi_restore 8
	.cfi_def_cfa 2, 32
	addi	sp,sp,32
	.cfi_def_cfa_offset 0
	jr	ra
	.cfi_endproc
.LFE3121:
	.size	_ZStneIcSt11char_traitsIcESaIcEEbPKT_RKNSt7__cxx1112basic_stringIS3_T0_T1_EE, .-_ZStneIcSt11char_traitsIcESaIcEEbPKT_RKNSt7__cxx1112basic_stringIS3_T0_T1_EE
	.section	.text._ZNSt3mapINSt7__cxx1112basic_stringIcSt11char_traitsIcESaIcEEES5_St4lessIS5_ESaISt4pairIKS5_S5_EEE3endEv,"axG",@progbits,_ZNSt3mapINSt7__cxx1112basic_stringIcSt11char_traitsIcESaIcEEES5_St4lessIS5_ESaISt4pairIKS5_S5_EEE3endEv,comdat
	.align	1
	.weak	_ZNSt3mapINSt7__cxx1112basic_stringIcSt11char_traitsIcESaIcEEES5_St4lessIS5_ESaISt4pairIKS5_S5_EEE3endEv
	.type	_ZNSt3mapINSt7__cxx1112basic_stringIcSt11char_traitsIcESaIcEEES5_St4lessIS5_ESaISt4pairIKS5_S5_EEE3endEv, @function
_ZNSt3mapINSt7__cxx1112basic_stringIcSt11char_traitsIcESaIcEEES5_St4lessIS5_ESaISt4pairIKS5_S5_EEE3endEv:
.LFB3125:
	.cfi_startproc
	addi	sp,sp,-32
	.cfi_def_cfa_offset 32
	sd	ra,24(sp)
	sd	s0,16(sp)
	.cfi_offset 1, -8
	.cfi_offset 8, -16
	addi	s0,sp,32
	.cfi_def_cfa 8, 0
	sd	a0,-24(s0)
	ld	a5,-24(s0)
	mv	a0,a5
	call	_ZNSt8_Rb_treeINSt7__cxx1112basic_stringIcSt11char_traitsIcESaIcEEESt4pairIKS5_S5_ESt10_Select1stIS8_ESt4lessIS5_ESaIS8_EE3endEv
	mv	a5,a0
	mv	a0,a5
	ld	ra,24(sp)
	.cfi_restore 1
	ld	s0,16(sp)
	.cfi_restore 8
	.cfi_def_cfa 2, 32
	addi	sp,sp,32
	.cfi_def_cfa_offset 0
	jr	ra
	.cfi_endproc
.LFE3125:
	.size	_ZNSt3mapINSt7__cxx1112basic_stringIcSt11char_traitsIcESaIcEEES5_St4lessIS5_ESaISt4pairIKS5_S5_EEE3endEv, .-_ZNSt3mapINSt7__cxx1112basic_stringIcSt11char_traitsIcESaIcEEES5_St4lessIS5_ESaISt4pairIKS5_S5_EEE3endEv
	.section	.text._ZNSt3mapINSt7__cxx1112basic_stringIcSt11char_traitsIcESaIcEEES5_St4lessIS5_ESaISt4pairIKS5_S5_EEE4findERS9_,"axG",@progbits,_ZNSt3mapINSt7__cxx1112basic_stringIcSt11char_traitsIcESaIcEEES5_St4lessIS5_ESaISt4pairIKS5_S5_EEE4findERS9_,comdat
	.align	1
	.weak	_ZNSt3mapINSt7__cxx1112basic_stringIcSt11char_traitsIcESaIcEEES5_St4lessIS5_ESaISt4pairIKS5_S5_EEE4findERS9_
	.type	_ZNSt3mapINSt7__cxx1112basic_stringIcSt11char_traitsIcESaIcEEES5_St4lessIS5_ESaISt4pairIKS5_S5_EEE4findERS9_, @function
_ZNSt3mapINSt7__cxx1112basic_stringIcSt11char_traitsIcESaIcEEES5_St4lessIS5_ESaISt4pairIKS5_S5_EEE4findERS9_:
.LFB3126:
	.cfi_startproc
	addi	sp,sp,-32
	.cfi_def_cfa_offset 32
	sd	ra,24(sp)
	sd	s0,16(sp)
	.cfi_offset 1, -8
	.cfi_offset 8, -16
	addi	s0,sp,32
	.cfi_def_cfa 8, 0
	sd	a0,-24(s0)
	sd	a1,-32(s0)
	ld	a5,-24(s0)
	ld	a1,-32(s0)
	mv	a0,a5
	call	_ZNSt8_Rb_treeINSt7__cxx1112basic_stringIcSt11char_traitsIcESaIcEEESt4pairIKS5_S5_ESt10_Select1stIS8_ESt4lessIS5_ESaIS8_EE4findERS7_
	mv	a5,a0
	mv	a0,a5
	ld	ra,24(sp)
	.cfi_restore 1
	ld	s0,16(sp)
	.cfi_restore 8
	.cfi_def_cfa 2, 32
	addi	sp,sp,32
	.cfi_def_cfa_offset 0
	jr	ra
	.cfi_endproc
.LFE3126:
	.size	_ZNSt3mapINSt7__cxx1112basic_stringIcSt11char_traitsIcESaIcEEES5_St4lessIS5_ESaISt4pairIKS5_S5_EEE4findERS9_, .-_ZNSt3mapINSt7__cxx1112basic_stringIcSt11char_traitsIcESaIcEEES5_St4lessIS5_ESaISt4pairIKS5_S5_EEE4findERS9_
	.section	.text._ZStneRKSt17_Rb_tree_iteratorISt4pairIKNSt7__cxx1112basic_stringIcSt11char_traitsIcESaIcEEES6_EESB_,"axG",@progbits,_ZStneRKSt17_Rb_tree_iteratorISt4pairIKNSt7__cxx1112basic_stringIcSt11char_traitsIcESaIcEEES6_EESB_,comdat
	.align	1
	.weak	_ZStneRKSt17_Rb_tree_iteratorISt4pairIKNSt7__cxx1112basic_stringIcSt11char_traitsIcESaIcEEES6_EESB_
	.type	_ZStneRKSt17_Rb_tree_iteratorISt4pairIKNSt7__cxx1112basic_stringIcSt11char_traitsIcESaIcEEES6_EESB_, @function
_ZStneRKSt17_Rb_tree_iteratorISt4pairIKNSt7__cxx1112basic_stringIcSt11char_traitsIcESaIcEEES6_EESB_:
.LFB3127:
	.cfi_startproc
	addi	sp,sp,-32
	.cfi_def_cfa_offset 32
	sd	s0,24(sp)
	.cfi_offset 8, -8
	addi	s0,sp,32
	.cfi_def_cfa 8, 0
	sd	a0,-24(s0)
	sd	a1,-32(s0)
	ld	a5,-24(s0)
	ld	a4,0(a5)
	ld	a5,-32(s0)
	ld	a5,0(a5)
	sub	a5,a4,a5
	snez	a5,a5
	andi	a5,a5,0xff
	mv	a0,a5
	ld	s0,24(sp)
	.cfi_restore 8
	.cfi_def_cfa 2, 32
	addi	sp,sp,32
	.cfi_def_cfa_offset 0
	jr	ra
	.cfi_endproc
.LFE3127:
	.size	_ZStneRKSt17_Rb_tree_iteratorISt4pairIKNSt7__cxx1112basic_stringIcSt11char_traitsIcESaIcEEES6_EESB_, .-_ZStneRKSt17_Rb_tree_iteratorISt4pairIKNSt7__cxx1112basic_stringIcSt11char_traitsIcESaIcEEES6_EESB_
	.section	.text._ZNSt3mapINSt7__cxx1112basic_stringIcSt11char_traitsIcESaIcEEES5_St4lessIS5_ESaISt4pairIKS5_S5_EEEixEOS5_,"axG",@progbits,_ZNSt3mapINSt7__cxx1112basic_stringIcSt11char_traitsIcESaIcEEES5_St4lessIS5_ESaISt4pairIKS5_S5_EEEixEOS5_,comdat
	.align	1
	.weak	_ZNSt3mapINSt7__cxx1112basic_stringIcSt11char_traitsIcESaIcEEES5_St4lessIS5_ESaISt4pairIKS5_S5_EEEixEOS5_
	.type	_ZNSt3mapINSt7__cxx1112basic_stringIcSt11char_traitsIcESaIcEEES5_St4lessIS5_ESaISt4pairIKS5_S5_EEEixEOS5_, @function
_ZNSt3mapINSt7__cxx1112basic_stringIcSt11char_traitsIcESaIcEEES5_St4lessIS5_ESaISt4pairIKS5_S5_EEEixEOS5_:
.LFB3128:
	.cfi_startproc
	addi	sp,sp,-96
	.cfi_def_cfa_offset 96
	sd	ra,88(sp)
	sd	s0,80(sp)
	sd	s1,72(sp)
	.cfi_offset 1, -8
	.cfi_offset 8, -16
	.cfi_offset 9, -24
	addi	s0,sp,96
	.cfi_def_cfa 8, 0
	sd	a0,-88(s0)
	sd	a1,-96(s0)
	ld	a1,-96(s0)
	ld	a0,-88(s0)
	call	_ZNSt3mapINSt7__cxx1112basic_stringIcSt11char_traitsIcESaIcEEES5_St4lessIS5_ESaISt4pairIKS5_S5_EEE11lower_boundERS9_
	mv	a5,a0
	sd	a5,-80(s0)
	ld	a0,-88(s0)
	call	_ZNSt3mapINSt7__cxx1112basic_stringIcSt11char_traitsIcESaIcEEES5_St4lessIS5_ESaISt4pairIKS5_S5_EEE3endEv
	mv	a5,a0
	sd	a5,-72(s0)
	addi	a4,s0,-72
	addi	a5,s0,-80
	mv	a1,a4
	mv	a0,a5
	call	_ZSteqRKSt17_Rb_tree_iteratorISt4pairIKNSt7__cxx1112basic_stringIcSt11char_traitsIcESaIcEEES6_EESB_
	mv	a5,a0
	bne	a5,zero,.L676
	ld	a0,-88(s0)
	call	_ZNKSt3mapINSt7__cxx1112basic_stringIcSt11char_traitsIcESaIcEEES5_St4lessIS5_ESaISt4pairIKS5_S5_EEE8key_compEv
	addi	a5,s0,-80
	mv	a0,a5
	call	_ZNKSt17_Rb_tree_iteratorISt4pairIKNSt7__cxx1112basic_stringIcSt11char_traitsIcESaIcEEES6_EEdeEv
	mv	a5,a0
	mv	a4,a5
	addi	a5,s0,-64
	mv	a2,a4
	ld	a1,-96(s0)
	mv	a0,a5
	call	_ZNKSt4lessINSt7__cxx1112basic_stringIcSt11char_traitsIcESaIcEEEEclERKS5_S8_
	mv	a5,a0
	beq	a5,zero,.L677
.L676:
	li	a5,1
	j	.L678
.L677:
	li	a5,0
.L678:
	beq	a5,zero,.L679
	ld	s1,-88(s0)
	addi	a4,s0,-80
	addi	a5,s0,-56
	mv	a1,a4
	mv	a0,a5
	call	_ZNSt23_Rb_tree_const_iteratorISt4pairIKNSt7__cxx1112basic_stringIcSt11char_traitsIcESaIcEEES6_EEC1ERKSt17_Rb_tree_iteratorIS8_E
	ld	a0,-96(s0)
	call	_ZSt4moveIRNSt7__cxx1112basic_stringIcSt11char_traitsIcESaIcEEEEONSt16remove_referenceIT_E4typeEOS8_
	mv	a4,a0
	addi	a5,s0,-48
	mv	a1,a4
	mv	a0,a5
	call	_ZSt16forward_as_tupleIJNSt7__cxx1112basic_stringIcSt11char_traitsIcESaIcEEEEESt5tupleIJDpOT_EES9_
	addi	a4,s0,-40
	addi	a5,s0,-48
	mv	a3,a5
	lui	a5,%hi(_ZStL19piecewise_construct)
	addi	a2,a5,%lo(_ZStL19piecewise_construct)
	ld	a1,-56(s0)
	mv	a0,s1
	call	_ZNSt8_Rb_treeINSt7__cxx1112basic_stringIcSt11char_traitsIcESaIcEEESt4pairIKS5_S5_ESt10_Select1stIS8_ESt4lessIS5_ESaIS8_EE22_M_emplace_hint_uniqueIJRKSt21piecewise_construct_tSt5tupleIJOS5_EESJ_IJEEEEESt17_Rb_tree_iteratorIS8_ESt23_Rb_tree_const_iteratorIS8_EDpOT_
	mv	a5,a0
	sd	a5,-80(s0)
.L679:
	addi	a5,s0,-80
	mv	a0,a5
	call	_ZNKSt17_Rb_tree_iteratorISt4pairIKNSt7__cxx1112basic_stringIcSt11char_traitsIcESaIcEEES6_EEdeEv
	mv	a5,a0
	addi	a5,a5,32
	mv	a0,a5
	ld	ra,88(sp)
	.cfi_restore 1
	ld	s0,80(sp)
	.cfi_restore 8
	.cfi_def_cfa 2, 96
	ld	s1,72(sp)
	.cfi_restore 9
	addi	sp,sp,96
	.cfi_def_cfa_offset 0
	jr	ra
	.cfi_endproc
.LFE3128:
	.size	_ZNSt3mapINSt7__cxx1112basic_stringIcSt11char_traitsIcESaIcEEES5_St4lessIS5_ESaISt4pairIKS5_S5_EEEixEOS5_, .-_ZNSt3mapINSt7__cxx1112basic_stringIcSt11char_traitsIcESaIcEEES5_St4lessIS5_ESaISt4pairIKS5_S5_EEEixEOS5_
	.section	.text._ZNSt3mapINSt7__cxx1112basic_stringIcSt11char_traitsIcESaIcEEES5_St4lessIS5_ESaISt4pairIKS5_S5_EEE5beginEv,"axG",@progbits,_ZNSt3mapINSt7__cxx1112basic_stringIcSt11char_traitsIcESaIcEEES5_St4lessIS5_ESaISt4pairIKS5_S5_EEE5beginEv,comdat
	.align	1
	.weak	_ZNSt3mapINSt7__cxx1112basic_stringIcSt11char_traitsIcESaIcEEES5_St4lessIS5_ESaISt4pairIKS5_S5_EEE5beginEv
	.type	_ZNSt3mapINSt7__cxx1112basic_stringIcSt11char_traitsIcESaIcEEES5_St4lessIS5_ESaISt4pairIKS5_S5_EEE5beginEv, @function
_ZNSt3mapINSt7__cxx1112basic_stringIcSt11char_traitsIcESaIcEEES5_St4lessIS5_ESaISt4pairIKS5_S5_EEE5beginEv:
.LFB3133:
	.cfi_startproc
	addi	sp,sp,-32
	.cfi_def_cfa_offset 32
	sd	ra,24(sp)
	sd	s0,16(sp)
	.cfi_offset 1, -8
	.cfi_offset 8, -16
	addi	s0,sp,32
	.cfi_def_cfa 8, 0
	sd	a0,-24(s0)
	ld	a5,-24(s0)
	mv	a0,a5
	call	_ZNSt8_Rb_treeINSt7__cxx1112basic_stringIcSt11char_traitsIcESaIcEEESt4pairIKS5_S5_ESt10_Select1stIS8_ESt4lessIS5_ESaIS8_EE5beginEv
	mv	a5,a0
	mv	a0,a5
	ld	ra,24(sp)
	.cfi_restore 1
	ld	s0,16(sp)
	.cfi_restore 8
	.cfi_def_cfa 2, 32
	addi	sp,sp,32
	.cfi_def_cfa_offset 0
	jr	ra
	.cfi_endproc
.LFE3133:
	.size	_ZNSt3mapINSt7__cxx1112basic_stringIcSt11char_traitsIcESaIcEEES5_St4lessIS5_ESaISt4pairIKS5_S5_EEE5beginEv, .-_ZNSt3mapINSt7__cxx1112basic_stringIcSt11char_traitsIcESaIcEEES5_St4lessIS5_ESaISt4pairIKS5_S5_EEE5beginEv
	.section	.text._ZNSt17_Rb_tree_iteratorISt4pairIKNSt7__cxx1112basic_stringIcSt11char_traitsIcESaIcEEES6_EEppEi,"axG",@progbits,_ZNSt17_Rb_tree_iteratorISt4pairIKNSt7__cxx1112basic_stringIcSt11char_traitsIcESaIcEEES6_EEppEi,comdat
	.align	1
	.weak	_ZNSt17_Rb_tree_iteratorISt4pairIKNSt7__cxx1112basic_stringIcSt11char_traitsIcESaIcEEES6_EEppEi
	.type	_ZNSt17_Rb_tree_iteratorISt4pairIKNSt7__cxx1112basic_stringIcSt11char_traitsIcESaIcEEES6_EEppEi, @function
_ZNSt17_Rb_tree_iteratorISt4pairIKNSt7__cxx1112basic_stringIcSt11char_traitsIcESaIcEEES6_EEppEi:
.LFB3134:
	.cfi_startproc
	addi	sp,sp,-48
	.cfi_def_cfa_offset 48
	sd	ra,40(sp)
	sd	s0,32(sp)
	.cfi_offset 1, -8
	.cfi_offset 8, -16
	addi	s0,sp,48
	.cfi_def_cfa 8, 0
	sd	a0,-40(s0)
	mv	a5,a1
	sw	a5,-44(s0)
	ld	a5,-40(s0)
	ld	a5,0(a5)
	sd	a5,-24(s0)
	ld	a5,-40(s0)
	ld	a5,0(a5)
	mv	a0,a5
	call	_ZSt18_Rb_tree_incrementPSt18_Rb_tree_node_base
	mv	a4,a0
	ld	a5,-40(s0)
	sd	a4,0(a5)
	ld	a5,-24(s0)
	mv	a0,a5
	ld	ra,40(sp)
	.cfi_restore 1
	ld	s0,32(sp)
	.cfi_restore 8
	.cfi_def_cfa 2, 48
	addi	sp,sp,48
	.cfi_def_cfa_offset 0
	jr	ra
	.cfi_endproc
.LFE3134:
	.size	_ZNSt17_Rb_tree_iteratorISt4pairIKNSt7__cxx1112basic_stringIcSt11char_traitsIcESaIcEEES6_EEppEi, .-_ZNSt17_Rb_tree_iteratorISt4pairIKNSt7__cxx1112basic_stringIcSt11char_traitsIcESaIcEEES6_EEppEi
	.section	.text._ZNKSt17_Rb_tree_iteratorISt4pairIKNSt7__cxx1112basic_stringIcSt11char_traitsIcESaIcEEES6_EEptEv,"axG",@progbits,_ZNKSt17_Rb_tree_iteratorISt4pairIKNSt7__cxx1112basic_stringIcSt11char_traitsIcESaIcEEES6_EEptEv,comdat
	.align	1
	.weak	_ZNKSt17_Rb_tree_iteratorISt4pairIKNSt7__cxx1112basic_stringIcSt11char_traitsIcESaIcEEES6_EEptEv
	.type	_ZNKSt17_Rb_tree_iteratorISt4pairIKNSt7__cxx1112basic_stringIcSt11char_traitsIcESaIcEEES6_EEptEv, @function
_ZNKSt17_Rb_tree_iteratorISt4pairIKNSt7__cxx1112basic_stringIcSt11char_traitsIcESaIcEEES6_EEptEv:
.LFB3135:
	.cfi_startproc
	addi	sp,sp,-32
	.cfi_def_cfa_offset 32
	sd	ra,24(sp)
	sd	s0,16(sp)
	.cfi_offset 1, -8
	.cfi_offset 8, -16
	addi	s0,sp,32
	.cfi_def_cfa 8, 0
	sd	a0,-24(s0)
	ld	a5,-24(s0)
	ld	a5,0(a5)
	mv	a0,a5
	call	_ZNSt13_Rb_tree_nodeISt4pairIKNSt7__cxx1112basic_stringIcSt11char_traitsIcESaIcEEES6_EE9_M_valptrEv
	mv	a5,a0
	mv	a0,a5
	ld	ra,24(sp)
	.cfi_restore 1
	ld	s0,16(sp)
	.cfi_restore 8
	.cfi_def_cfa 2, 32
	addi	sp,sp,32
	.cfi_def_cfa_offset 0
	jr	ra
	.cfi_endproc
.LFE3135:
	.size	_ZNKSt17_Rb_tree_iteratorISt4pairIKNSt7__cxx1112basic_stringIcSt11char_traitsIcESaIcEEES6_EEptEv, .-_ZNKSt17_Rb_tree_iteratorISt4pairIKNSt7__cxx1112basic_stringIcSt11char_traitsIcESaIcEEES6_EEptEv
	.section	.text._ZNSt3mapIiS_INSt7__cxx1112basic_stringIcSt11char_traitsIcESaIcEEES5_St4lessIS5_ESaISt4pairIKS5_S5_EEES6_IiESaIS8_IKiSC_EEE5beginEv,"axG",@progbits,_ZNSt3mapIiS_INSt7__cxx1112basic_stringIcSt11char_traitsIcESaIcEEES5_St4lessIS5_ESaISt4pairIKS5_S5_EEES6_IiESaIS8_IKiSC_EEE5beginEv,comdat
	.align	1
	.weak	_ZNSt3mapIiS_INSt7__cxx1112basic_stringIcSt11char_traitsIcESaIcEEES5_St4lessIS5_ESaISt4pairIKS5_S5_EEES6_IiESaIS8_IKiSC_EEE5beginEv
	.type	_ZNSt3mapIiS_INSt7__cxx1112basic_stringIcSt11char_traitsIcESaIcEEES5_St4lessIS5_ESaISt4pairIKS5_S5_EEES6_IiESaIS8_IKiSC_EEE5beginEv, @function
_ZNSt3mapIiS_INSt7__cxx1112basic_stringIcSt11char_traitsIcESaIcEEES5_St4lessIS5_ESaISt4pairIKS5_S5_EEES6_IiESaIS8_IKiSC_EEE5beginEv:
.LFB3139:
	.cfi_startproc
	addi	sp,sp,-32
	.cfi_def_cfa_offset 32
	sd	ra,24(sp)
	sd	s0,16(sp)
	.cfi_offset 1, -8
	.cfi_offset 8, -16
	addi	s0,sp,32
	.cfi_def_cfa 8, 0
	sd	a0,-24(s0)
	ld	a5,-24(s0)
	mv	a0,a5
	call	_ZNSt8_Rb_treeIiSt4pairIKiSt3mapINSt7__cxx1112basic_stringIcSt11char_traitsIcESaIcEEES8_St4lessIS8_ESaIS0_IKS8_S8_EEEESt10_Select1stISF_ES9_IiESaISF_EE5beginEv
	mv	a5,a0
	mv	a0,a5
	ld	ra,24(sp)
	.cfi_restore 1
	ld	s0,16(sp)
	.cfi_restore 8
	.cfi_def_cfa 2, 32
	addi	sp,sp,32
	.cfi_def_cfa_offset 0
	jr	ra
	.cfi_endproc
.LFE3139:
	.size	_ZNSt3mapIiS_INSt7__cxx1112basic_stringIcSt11char_traitsIcESaIcEEES5_St4lessIS5_ESaISt4pairIKS5_S5_EEES6_IiESaIS8_IKiSC_EEE5beginEv, .-_ZNSt3mapIiS_INSt7__cxx1112basic_stringIcSt11char_traitsIcESaIcEEES5_St4lessIS5_ESaISt4pairIKS5_S5_EEES6_IiESaIS8_IKiSC_EEE5beginEv
	.section	.text._ZNSt3mapIiS_INSt7__cxx1112basic_stringIcSt11char_traitsIcESaIcEEES5_St4lessIS5_ESaISt4pairIKS5_S5_EEES6_IiESaIS8_IKiSC_EEE3endEv,"axG",@progbits,_ZNSt3mapIiS_INSt7__cxx1112basic_stringIcSt11char_traitsIcESaIcEEES5_St4lessIS5_ESaISt4pairIKS5_S5_EEES6_IiESaIS8_IKiSC_EEE3endEv,comdat
	.align	1
	.weak	_ZNSt3mapIiS_INSt7__cxx1112basic_stringIcSt11char_traitsIcESaIcEEES5_St4lessIS5_ESaISt4pairIKS5_S5_EEES6_IiESaIS8_IKiSC_EEE3endEv
	.type	_ZNSt3mapIiS_INSt7__cxx1112basic_stringIcSt11char_traitsIcESaIcEEES5_St4lessIS5_ESaISt4pairIKS5_S5_EEES6_IiESaIS8_IKiSC_EEE3endEv, @function
_ZNSt3mapIiS_INSt7__cxx1112basic_stringIcSt11char_traitsIcESaIcEEES5_St4lessIS5_ESaISt4pairIKS5_S5_EEES6_IiESaIS8_IKiSC_EEE3endEv:
.LFB3140:
	.cfi_startproc
	addi	sp,sp,-32
	.cfi_def_cfa_offset 32
	sd	ra,24(sp)
	sd	s0,16(sp)
	.cfi_offset 1, -8
	.cfi_offset 8, -16
	addi	s0,sp,32
	.cfi_def_cfa 8, 0
	sd	a0,-24(s0)
	ld	a5,-24(s0)
	mv	a0,a5
